$000000                 .EQ P6502       =  0
$000001                 .EQ P65C02      =  1
$000002                 .EQ P65816_E    =  2
$000003                 .EQ P65816_8    =  3
$000004                 .EQ P65816_16   =  4
$000005                 .EQ P65816_M    =  5
$000006                 .EQ P65816_X    =  6
$000007                 .EQ P65GZ032    =  7
$000008                 .EQ P6502GZ     =  8
$000009                 .EQ P6809       =  9
$00000A                 .EQ PZ80        = 10
$000000                 .EQ CPU = P6502
$000000                 ; TTL-6502 program
$000003                 .eq Test        = $03
$000010                 .eq TmpZP0      = $10
$001000                 .eq TmpAB0      = $1000
$00E000                 .ba $E000
$00E000                 Reset
$00E000     EA                          nop
$00E001                 ;**  Check if JMP works fine
$00E001     4C EC FF                    jmp     L999
$00E004                 ;* Should not be executed at all
$00E004     EA                          nop
$00E005     38                          sec
$00E006                 L000c
$00E006     B0 FE                       bcs     L000c
$00E008     EA                          nop
$00E009                 L000
$00E009     4C 6E F5                    jmp     M372
$00E00C     EA                          nop
$00E00D                 L000a
$00E00D     18                          clc
$00E00E     A9 00                       lda     #0
$00E010     60                          rts
$00E011     EA                          nop
$00E012                 ;**  Test branches with all flags set
$00E012                 L005
$00E012     A9 01                       lda     #1
$00E014     85 03                       sta     Test
$00E016     A2 FF                       ldx     #$FF
$00E018     9A                          txs
$00E019     A9 FF                       lda     #$FF
$00E01B     48                          pha
$00E01C     28                          plp                     ; set all flags
$00E01D                 ;!! Remark: if an error occurs, don't forget that one of the above instructions
$00E01D                 ;           could have been the cause instead.
$00E01D                 L001
$00E01D     90 FE                       bcc     L001
$00E01F                 L002
$00E01F     D0 FE                       bne     L002
$00E021                 L003
$00E021     50 FE                       bvc     L003
$00E023                 L004
$00E023     10 FE                       bpl     L004
$00E025     30 03                       bmi     L006            ; must branch, else error
$00E027                 L004a
$00E027     4C 27 E0                    jmp     L004a           ; error, ->
$00E02A                 L006
$00E02A     F0 03                       beq     L007            ; must branch, else error
$00E02C                 L006a
$00E02C     4C 2C E0                    jmp     L006a           ; error, ->
$00E02F                 L007
$00E02F     70 03                       bvs     L008            ; must branch, else error
$00E031                 L007a
$00E031     4C 31 E0                    jmp     L007a           ; error, ->
$00E034                 L008
$00E034     B0 03                       bcs     L010            ; must branch, else error
$00E036                 ; Branch shouldn't have happened,
$00E036                 L008a
$00E036     4C 36 E0                    jmp     L008a
$00E039                 ;**  Test branches with all flags reset
$00E039                 L010
$00E039     A9 02                       lda     #2
$00E03B     85 03                       sta     Test
$00E03D     A9 00                       lda     #0
$00E03F     48                          pha
$00E040     28                          plp                     ; reset all flags
$00E041                 L011
$00E041     B0 FE                       bcs     L011
$00E043                 L012
$00E043     F0 FE                       beq     L012
$00E045                 L013
$00E045     70 FE                       bvs     L013
$00E047                 L014
$00E047     30 FE                       bmi     L014
$00E049     90 03                       bcc     L015            ; must branch, else error
$00E04B                 L014a
$00E04B     4C 4B E0                    jmp     L014a           ; error, ->
$00E04E                 L015
$00E04E     D0 03                       bne     L016            ; must branch, else error
$00E050                 L015a
$00E050     4C 50 E0                    jmp     L015a           ; error, ->
$00E053                 L016
$00E053     50 03                       bvc     L017            ; must branch, else error
$00E055                 L016a
$00E055     4C 55 E0                    jmp     L016a           ; error, ->
$00E058                 L017
$00E058     10 03                       bpl     L020            ; must branch, else error
$00E05A                 L017a
$00E05A     4C 5A E0                    jmp     L017a           ; error, ->
$00E05D                 ;**  Test SEC, CLC and CLV
$00E05D                 L020
$00E05D     A9 03                       lda     #3
$00E05F     85 03                       sta     Test
$00E061                 L020c
$00E061     F0 FE                       beq     L020c           ; must skip, else error
$00E063     D0 03                       bne     L020e
$00E065                 L020d
$00E065     4C 65 E0                    jmp     L020d
$00E068                 L020e
$00E068     38                          sec
$00E069                 L020a
$00E069     90 FE                       bcc     L020a           ; error, ->
$00E06B     B0 03                       bcs     L021            ; must branch, else error
$00E06D                 L020b
$00E06D     4C 6D E0                    jmp     L020b           ; error, ->
$00E070                 L021
$00E070     18                          clc
$00E071                 L021a
$00E071     B0 FE                       bcs     L021a           ; error, ->
$00E073     90 03                       bcc     L022            ; must branch, else error
$00E075                 L021b
$00E075     4C 75 E0                    jmp     L021b           ; error, ->
$00E078                 L022
$00E078     B8                          clv
$00E079                 L022a
$00E079     70 FE                       bvs     L022a           ; error, ->
$00E07B     50 03                       bvc     L030            ; must branch, else error
$00E07D                 L022b
$00E07D     4C 7D E0                    jmp     L022b           ; error, ->
$00E080                 ;**  Test LDA/X/Y #n, STA/X/Y $xx/$xxxx
$00E080                 L030
$00E080     A9 04                       lda     #4
$00E082     85 03                       sta     Test
$00E084     A9 00                       lda     #0
$00E086                 L031
$00E086     D0 FE                       bne     L031            ; error, ->
$00E088                 L032
$00E088     30 FE                       bmi     L032            ; error, ->
$00E08A     85 10                       sta     TmpZP0
$00E08C     8D 00 10                    sta     TmpAB0
$00E08F     A9 80                       lda     #$80
$00E091                 L033
$00E091     F0 FE                       beq     L033            ; error, ->
$00E093                 L034
$00E093     10 FE                       bpl     L034            ; error, ->
$00E095     85 11                       sta     TmpZP0+1
$00E097     8D 01 10                    sta     TmpAB0+1
$00E09A     A2 00                       ldx     #0
$00E09C                 L035
$00E09C     D0 FE                       bne     L035            ; error, ->
$00E09E                 L036
$00E09E     30 FE                       bmi     L036            ; error, ->
$00E0A0     86 12                       stx     TmpZP0+2
$00E0A2     8E 02 10                    stx     TmpAB0+2
$00E0A5     A2 80                       ldx     #$80
$00E0A7                 L037
$00E0A7     F0 FE                       beq     L037            ; error, ->
$00E0A9                 L038
$00E0A9     10 FE                       bpl     L038            ; error, ->
$00E0AB     86 13                       stx     TmpZP0+3
$00E0AD     8E 03 10                    stx     TmpAB0+3
$00E0B0     A0 00                       ldy     #0
$00E0B2                 L039a
$00E0B2     D0 FE                       bne     L039a           ; error, ->
$00E0B4                 L039b
$00E0B4     30 FE                       bmi     L039b           ; error, ->
$00E0B6     84 14                       sty     TmpZP0+4
$00E0B8     8C 04 10                    sty     TmpAB0+4
$00E0BB     A0 80                       ldy     #$80
$00E0BD                 L039c
$00E0BD     F0 FE                       beq     L039c           ; error, ->
$00E0BF                 L039d
$00E0BF     10 FE                       bpl     L039d           ; error, ->
$00E0C1     84 15                       sty     TmpZP0+5
$00E0C3     8C 05 10                    sty     TmpAB0+5
$00E0C6                 ;**  Test LDA/X/Y $xx
$00E0C6     A9 05                       lda     #5
$00E0C8     85 03                       sta     Test
$00E0CA     A5 10                       lda     TmpZP0
$00E0CC                 L039e
$00E0CC     D0 FE                       bne     L039e           ; error, ->
$00E0CE                 L039f
$00E0CE     30 FE                       bmi     L039f           ; error, ->
$00E0D0     A5 11                       lda     TmpZP0+1
$00E0D2                 L039g
$00E0D2     F0 FE                       beq     L039g           ; error, ->
$00E0D4                 L039h
$00E0D4     10 FE                       bpl     L039h           ; error, ->
$00E0D6     A6 10                       ldx     TmpZP0
$00E0D8                 L039i
$00E0D8     D0 FE                       bne     L039i           ; error, ->
$00E0DA                 L039j
$00E0DA     30 FE                       bmi     L039j           ; error, ->
$00E0DC     A6 11                       ldx     TmpZP0+1
$00E0DE                 L039k
$00E0DE     F0 FE                       beq     L039k           ; error, ->
$00E0E0                 L039l
$00E0E0     10 FE                       bpl     L039l           ; error, ->
$00E0E2     A4 10                       ldy     TmpZP0
$00E0E4                 L039m
$00E0E4     D0 FE                       bne     L039m           ; error, ->
$00E0E6                 L039n
$00E0E6     30 FE                       bmi     L039n           ; error, ->
$00E0E8     A4 11                       ldy     TmpZP0+1
$00E0EA                 L039o
$00E0EA     F0 FE                       beq     L039o           ; error, ->
$00E0EC                 L039p
$00E0EC     10 FE                       bpl     L039p           ; error, ->
$00E0EE                 ;**  Test branch around page border
$00E0EE     18                          clc
$00E0EF     90 14                       bcc     L40m
$00E0F1                 L40a
$00E0F1     4C F1 E0                    jmp     L40a
$00E0F4                 L40b
$00E0F4     38                          sec
$00E0F5     B0 10                       bcs     L40z
$00E0F7     EA * 000E   .fb $EA, 14
$00E105     90 ED       L40m            bcc     L40b
$00E107                 ;**  Test LDA/X/Y $xxxx
$00E107                 L40z
$00E107     A9 06                       lda     #6
$00E109     85 03                       sta     Test
$00E10B     AD 00 10                    lda     TmpAB0
$00E10E                 L041
$00E10E     D0 FE                       bne     L041            ; error, ->
$00E110                 L042
$00E110     30 FE                       bmi     L042            ; error, ->
$00E112     AD 01 10                    lda     TmpAB0+1
$00E115                 L043
$00E115     F0 FE                       beq     L043            ; error, ->
$00E117                 L044
$00E117     10 FE                       bpl     L044            ; error, ->
$00E119     AE 00 10                    ldx     TmpAB0
$00E11C                 L044a
$00E11C     D0 FE                       bne     L044a           ; error, ->
$00E11E                 L044b
$00E11E     30 FE                       bmi     L044b           ; error, ->
$00E120     AE 01 10                    ldx     TmpAB0+1
$00E123                 L044c
$00E123     F0 FE                       beq     L044c           ; error, ->
$00E125                 L044d
$00E125     10 FE                       bpl     L044d           ; error, ->
$00E127     AC 00 10                    ldy     TmpAB0
$00E12A                 L044e
$00E12A     D0 FE                       bne     L044e           ; error, ->
$00E12C                 L044f
$00E12C     30 FE                       bmi     L044f           ; error, ->
$00E12E     AC 01 10                    ldy     TmpAB0+1
$00E131                 L044g
$00E131     F0 FE                       beq     L044g           ; error, ->
$00E133                 L044h
$00E133     10 FE                       bpl     L044h           ; error, ->
$00E135                 ;**  Test CMP/CPX/CPY
$00E135                 ;* register = value
$00E135     A2 00                       ldx     #0
$00E137     A0 00                       ldy     #0
$00E139     A9 07                       lda     #7
$00E13B     85 03                       sta     Test
$00E13D     85 10                       sta     TmpZP0
$00E13F     8D 00 10                    sta     TmpAB0
$00E142     C9 07                       cmp     #7
$00E144                 L051
$00E144     D0 FE                       bne     L051            ; error, ->
$00E146                 L052
$00E146     90 FE                       bcc     L052            ; error, ->
$00E148                 L053
$00E148     30 FE                       bmi     L053            ; error, ->
$00E14A     C5 10                       cmp     TmpZP0
$00E14C                 L051a
$00E14C     D0 FE                       bne     L051a           ; error, ->
$00E14E                 L052a
$00E14E     90 FE                       bcc     L052a           ; error, ->
$00E150                 L053a
$00E150     30 FE                       bmi     L053a           ; error, ->
$00E152     CD 00 10                    cmp     TmpAB0
$00E155                 L051b
$00E155     D0 FE                       bne     L051b           ; error, ->
$00E157                 L052b
$00E157     90 FE                       bcc     L052b           ; error, ->
$00E159                 L053b
$00E159     30 FE                       bmi     L053b           ; error, ->
$00E15B     A2 07                       ldx     #7
$00E15D     E0 07                       cpx     #7
$00E15F                 L051c
$00E15F     D0 FE                       bne     L051c           ; error, ->
$00E161                 L052c
$00E161     90 FE                       bcc     L052c           ; error, ->
$00E163                 L053c
$00E163     30 FE                       bmi     L053c           ; error, ->
$00E165     E4 10                       cpx     TmpZP0
$00E167                 L051d
$00E167     D0 FE                       bne     L051d           ; error, ->
$00E169                 L052d
$00E169     90 FE                       bcc     L052d           ; error, ->
$00E16B                 L053d
$00E16B     30 FE                       bmi     L053d           ; error, ->
$00E16D     EC 00 10                    cpx     TmpAB0
$00E170                 L051e
$00E170     D0 FE                       bne     L051e           ; error, ->
$00E172                 L052e
$00E172     90 FE                       bcc     L052e           ; error, ->
$00E174                 L053e
$00E174     30 FE                       bmi     L053e           ; error, ->
$00E176     A0 07                       ldy     #7
$00E178     C0 07                       cpy     #7
$00E17A                 L051f
$00E17A     D0 FE                       bne     L051f           ; error, ->
$00E17C                 L052f
$00E17C     90 FE                       bcc     L052f           ; error, ->
$00E17E                 L053f
$00E17E     30 FE                       bmi     L053f           ; error, ->
$00E180     C4 10                       cpy     TmpZP0
$00E182                 L051g
$00E182     D0 FE                       bne     L051g           ; error, ->
$00E184                 L052g
$00E184     90 FE                       bcc     L052g           ; error, ->
$00E186                 L053g
$00E186     30 FE                       bmi     L053g           ; error, ->
$00E188     CC 00 10                    cpy     TmpAB0
$00E18B                 L051h
$00E18B     D0 FE                       bne     L051h           ; error, ->
$00E18D                 L052h
$00E18D     90 FE                       bcc     L052h           ; error, ->
$00E18F                 L053h
$00E18F     30 FE                       bmi     L053h           ; error, ->
$00E191                 ;* register > memory
$00E191     A9 08                       lda     #8
$00E193     85 03                       sta     Test
$00E195     C9 07                       cmp     #7
$00E197                 L061
$00E197     F0 FE                       beq     L061            ; error, ->
$00E199                 L062
$00E199     90 FE                       bcc     L062            ; error, ->
$00E19B                 L063
$00E19B     30 FE                       bmi     L063            ; error, ->
$00E19D     C5 10                       cmp     TmpZP0
$00E19F                 L061a
$00E19F     F0 FE                       beq     L061a           ; error, ->
$00E1A1                 L062a
$00E1A1     90 FE                       bcc     L062a           ; error, ->
$00E1A3                 L063a
$00E1A3     30 FE                       bmi     L063a           ; error, ->
$00E1A5     CD 00 10                    cmp     TmpAB0
$00E1A8                 L061b
$00E1A8     F0 FE                       beq     L061b           ; error, ->
$00E1AA                 L062b
$00E1AA     90 FE                       bcc     L062b           ; error, ->
$00E1AC                 L063b
$00E1AC     30 FE                       bmi     L063b           ; error, ->
$00E1AE     A2 08                       ldx     #8
$00E1B0     E0 07                       cpx     #7
$00E1B2                 L061c
$00E1B2     F0 FE                       beq     L061c           ; error, ->
$00E1B4                 L062c
$00E1B4     90 FE                       bcc     L062c           ; error, ->
$00E1B6                 L063c
$00E1B6     30 FE                       bmi     L063c           ; error, ->
$00E1B8     E4 10                       cpx     TmpZP0
$00E1BA                 L061d
$00E1BA     F0 FE                       beq     L061d           ; error, ->
$00E1BC                 L062d
$00E1BC     90 FE                       bcc     L062d           ; error, ->
$00E1BE                 L063d
$00E1BE     30 FE                       bmi     L063d           ; error, ->
$00E1C0     EC 00 10                    cpx     TmpAB0
$00E1C3                 L061e
$00E1C3     F0 FE                       beq     L061e           ; error, ->
$00E1C5                 L062e
$00E1C5     90 FE                       bcc     L062e           ; error, ->
$00E1C7                 L063e
$00E1C7     30 FE                       bmi     L063e           ; error, ->
$00E1C9     A0 08                       ldy     #8
$00E1CB     C0 07                       cpy     #7
$00E1CD                 L061f
$00E1CD     F0 FE                       beq     L061f           ; error, ->
$00E1CF                 L062f
$00E1CF     90 FE                       bcc     L062f           ; error, ->
$00E1D1                 L063f
$00E1D1     30 FE                       bmi     L063f           ; error, ->
$00E1D3     C4 10                       cpy     TmpZP0
$00E1D5                 L061g
$00E1D5     F0 FE                       beq     L061g           ; error, ->
$00E1D7                 L062g
$00E1D7     90 FE                       bcc     L062g           ; error, ->
$00E1D9                 L063g
$00E1D9     30 FE                       bmi     L063g           ; error, ->
$00E1DB     CC 00 10                    cpy     TmpAB0
$00E1DE                 L061h
$00E1DE     F0 FE                       beq     L061h           ; error, ->
$00E1E0                 L062h
$00E1E0     90 FE                       bcc     L062h           ; error, ->
$00E1E2                 L063h
$00E1E2     30 FE                       bmi     L063h           ; error, ->
$00E1E4                 ;* register < memory
$00E1E4     A9 08                       lda     #8
$00E1E6     85 03                       sta     Test
$00E1E8     A9 05                       lda     #5
$00E1EA     C9 07                       cmp     #7
$00E1EC                 L071
$00E1EC     F0 FE                       beq     L071            ; error, ->
$00E1EE                 L072
$00E1EE     B0 FE                       bcs     L072            ; error, ->
$00E1F0                 L073
$00E1F0     10 FE                       bpl     L073            ; error, ->
$00E1F2     C5 10                       cmp     TmpZP0
$00E1F4                 L071a
$00E1F4     F0 FE                       beq     L071a           ; error, ->
$00E1F6                 L072a
$00E1F6     B0 FE                       bcs     L072a           ; error, ->
$00E1F8                 L073a
$00E1F8     10 FE                       bpl     L073a           ; error, ->
$00E1FA     A2 05                       ldx     #5
$00E1FC     E0 07                       cpx     #7
$00E1FE                 L071b
$00E1FE     F0 FE                       beq     L071b           ; error, ->
$00E200                 L072b
$00E200     B0 FE                       bcs     L072b           ; error, ->
$00E202                 L073b
$00E202     10 FE                       bpl     L073b           ; error, ->
$00E204     E4 10                       cpx     TmpZP0
$00E206                 L071c
$00E206     F0 FE                       beq     L071c           ; error, ->
$00E208                 L072c
$00E208     B0 FE                       bcs     L072c           ; error, ->
$00E20A                 L073c
$00E20A     10 FE                       bpl     L073c           ; error, ->
$00E20C     EC 00 10                    cpx     TmpAB0
$00E20F                 L071d
$00E20F     F0 FE                       beq     L071d           ; error, ->
$00E211                 L072d
$00E211     B0 FE                       bcs     L072d           ; error, ->
$00E213                 L073d
$00E213     10 FE                       bpl     L073d           ; error, ->
$00E215     A0 05                       ldy     #5
$00E217     C0 07                       cpy     #7
$00E219                 L071e
$00E219     F0 FE                       beq     L071e           ; error, ->
$00E21B                 L072e
$00E21B     B0 FE                       bcs     L072e           ; error, ->
$00E21D                 L073e
$00E21D     10 FE                       bpl     L073e           ; error, ->
$00E21F     C4 10                       cpy     TmpZP0
$00E221                 L071f
$00E221     F0 FE                       beq     L071f           ; error, ->
$00E223                 L072f
$00E223     B0 FE                       bcs     L072f           ; error, ->
$00E225                 L073f
$00E225     10 FE                       bpl     L073f           ; error, ->
$00E227     CC 00 10                    cpy     TmpAB0
$00E22A                 L071g
$00E22A     F0 FE                       beq     L071g           ; error, ->
$00E22C                 L072g
$00E22C     B0 FE                       bcs     L072g           ; error, ->
$00E22E                 L073g
$00E22E     10 FE                       bpl     L073g           ; error, ->
$00E230                 ;**  TAX, TXA
$00E230     A9 09                       lda     #9
$00E232     85 03                       sta     Test
$00E234     A2 00                       ldx     #0
$00E236     A9 AA                       lda     #$AA
$00E238     AA                          tax
$00E239                 L081
$00E239     10 FE                       bpl     L081            ; error, ->
$00E23B                 L082
$00E23B     F0 FE                       beq     L082            ; error, ->
$00E23D     E0 AA                       cpx     #$AA
$00E23F                 L083
$00E23F     D0 FE                       bne     L083            ; error, ->
$00E241     A9 0A                       lda     #$0A
$00E243     85 03                       sta     Test
$00E245     8A                          txa
$00E246                 L084
$00E246     10 FE                       bpl     L084            ; error, ->
$00E248                 L085
$00E248     F0 FE                       beq     L085            ; error, ->
$00E24A     C9 AA                       cmp     #$AA
$00E24C                 L086
$00E24C     D0 FE                       bne     L086            ; error, ->
$00E24E     A9 0B                       lda     #$0B
$00E250     85 03                       sta     Test
$00E252     A9 55                       lda     #$55
$00E254     AA                          tax
$00E255                 L087
$00E255     30 FE                       bmi     L087            ; error, ->
$00E257                 L088
$00E257     F0 FE                       beq     L088            ; error, ->
$00E259     E0 55                       cpx     #$55
$00E25B                 L089
$00E25B     D0 FE                       bne     L089            ; error, ->
$00E25D     A9 0C                       lda     #$0C
$00E25F     85 03                       sta     Test
$00E261     8A                          txa
$00E262                 L089a
$00E262     30 FE                       bmi     L089a           ; error, ->
$00E264                 L089b
$00E264     F0 FE                       beq     L089b           ; error, ->
$00E266     C9 55                       cmp     #$55
$00E268                 L089c
$00E268     D0 FE                       bne     L089c           ; error, ->
$00E26A     A9 0D                       lda     #$0D
$00E26C     85 03                       sta     Test
$00E26E     A9 00                       lda     #0
$00E270     AA                          tax
$00E271                 L089d
$00E271     30 FE                       bmi     L089d           ; error, ->
$00E273                 L089e
$00E273     D0 FE                       bne     L089e           ; error, ->
$00E275     E0 00                       cpx     #0
$00E277                 L089f
$00E277     D0 FE                       bne     L089f           ; error, ->
$00E279     A9 0E                       lda     #$0E
$00E27B     85 03                       sta     Test
$00E27D     8A                          txa
$00E27E                 L089g
$00E27E     30 FE                       bmi     L089g           ; error, ->
$00E280                 L089h
$00E280     D0 FE                       bne     L089h           ; error, ->
$00E282     C9 00                       cmp     #0
$00E284                 L089i
$00E284     D0 FE                       bne     L089i           ; error, ->
$00E286                 ;**  TAY, TYA
$00E286     A9 0F                       lda     #$0F
$00E288     85 03                       sta     Test
$00E28A     A0 00                       ldy     #0
$00E28C     A9 AA                       lda     #$AA
$00E28E     A8                          tay
$00E28F                 L091
$00E28F     10 FE                       bpl     L091            ; error, ->
$00E291                 L092
$00E291     F0 FE                       beq     L092            ; error, ->
$00E293     C0 AA                       cpy     #$AA
$00E295                 L093
$00E295     D0 FE                       bne     L093            ; error, ->
$00E297     A9 10                       lda     #$10
$00E299     85 03                       sta     Test
$00E29B     98                          tya
$00E29C                 L091a
$00E29C     10 FE                       bpl     L091a           ; error, ->
$00E29E                 L092a
$00E29E     F0 FE                       beq     L092a           ; error, ->
$00E2A0     C9 AA                       cmp     #$AA
$00E2A2                 L093a
$00E2A2     D0 FE                       bne     L093a           ; error, ->
$00E2A4     A9 11                       lda     #$11
$00E2A6     85 03                       sta     Test
$00E2A8     A9 55                       lda     #$55
$00E2AA     A8                          tay
$00E2AB                 L091b
$00E2AB     30 FE                       bmi     L091b           ; error, ->
$00E2AD                 L092b
$00E2AD     F0 FE                       beq     L092b           ; error, ->
$00E2AF     C0 55                       cpy     #$55
$00E2B1                 L093b
$00E2B1     D0 FE                       bne     L093b           ; error, ->
$00E2B3     A9 12                       lda     #$12
$00E2B5     85 03                       sta     Test
$00E2B7     98                          tya
$00E2B8                 L091c
$00E2B8     30 FE                       bmi     L091c           ; error, ->
$00E2BA                 L092c
$00E2BA     F0 FE                       beq     L092c           ; error, ->
$00E2BC     C9 55                       cmp     #$55
$00E2BE                 L093c
$00E2BE     D0 FE                       bne     L093c           ; error, ->
$00E2C0     A9 13                       lda     #$13
$00E2C2     85 03                       sta     Test
$00E2C4     A9 00                       lda     #0
$00E2C6     A8                          tay
$00E2C7                 L091d
$00E2C7     30 FE                       bmi     L091d           ; error, ->
$00E2C9                 L092d
$00E2C9     D0 FE                       bne     L092d           ; error, ->
$00E2CB     C0 00                       cpy     #0
$00E2CD                 L093d
$00E2CD     D0 FE                       bne     L093d           ; error, ->
$00E2CF     A9 14                       lda     #$14
$00E2D1     85 03                       sta     Test
$00E2D3     98                          tya
$00E2D4                 L091e
$00E2D4     30 B9                       bmi     L091            ; error, ->
$00E2D6                 L092e
$00E2D6     D0 FE                       bne     L092e           ; error, ->
$00E2D8     C9 00                       cmp     #0
$00E2DA                 L093e
$00E2DA     D0 FE                       bne     L093e           ; error, ->
$00E2DC                 ;**  TXS, TSX
$00E2DC     A9 15                       lda     #$15
$00E2DE     85 03                       sta     Test
$00E2E0     A2 AA                       ldx     #$AA
$00E2E2     9A                          txs
$00E2E3                 L101
$00E2E3     10 FE                       bpl     L101            ; error, ->
$00E2E5                 L102
$00E2E5     F0 FE                       beq     L102            ; error, ->
$00E2E7     A2 00                       ldx     #$00
$00E2E9     BA                          tsx
$00E2EA                 L103
$00E2EA     10 FE                       bpl     L103            ; error, ->
$00E2EC                 L104
$00E2EC     F0 FE                       beq     L104            ; error, ->
$00E2EE     E0 AA                       cpx     #$AA
$00E2F0                 L105
$00E2F0     D0 FE                       bne     L105            ; error, ->
$00E2F2     A9 16                       lda     #$16
$00E2F4     85 03                       sta     Test
$00E2F6     A2 55                       ldx     #$55
$00E2F8     9A                          txs
$00E2F9                 L103a
$00E2F9     30 FE                       bmi     L103a           ; error, ->
$00E2FB                 L104a
$00E2FB     F0 FE                       beq     L104a           ; error, ->
$00E2FD     A2 00                       ldx     #$00
$00E2FF     BA                          tsx
$00E300                 L103b
$00E300     30 FE                       bmi     L103b           ; error, ->
$00E302                 L104b
$00E302     F0 FE                       beq     L104b           ; error, ->
$00E304     E0 55                       cpx     #$55
$00E306                 L105b
$00E306     D0 FE                       bne     L105b           ; error, ->
$00E308     A9 17                       lda     #$17
$00E30A     85 03                       sta     Test
$00E30C     A2 00                       ldx     #0
$00E30E     9A                          txs
$00E30F                 L103c
$00E30F     30 FE                       bmi     L103c           ; error, ->
$00E311                 L104c
$00E311     D0 FE                       bne     L104c           ; error, ->
$00E313     A2 55                       ldx     #$55
$00E315     BA                          tsx
$00E316                 L103d
$00E316     30 FE                       bmi     L103d           ; error, ->
$00E318                 L104d
$00E318     D0 FE                       bne     L104d           ; error, ->
$00E31A     E0 00                       cpx     #0
$00E31C                 L105d
$00E31C     D0 FE                       bne     L105d           ; error, ->
$00E31E                 ;**  PHA, PLA
$00E31E     A9 17                       lda     #$17
$00E320     85 03                       sta     Test
$00E322     A9 AA                       lda     #$AA
$00E324     48                          pha
$00E325     68                          pla
$00E326                 L111
$00E326     F0 FE                       beq     L111            ; error, ->
$00E328                 L112
$00E328     10 FE                       bpl     L112            ; error, ->
$00E32A     A9 18                       lda     #$18
$00E32C     85 03                       sta     Test
$00E32E     A9 55                       lda     #$55
$00E330     48                          pha
$00E331     68                          pla
$00E332                 L113
$00E332     F0 FE                       beq     L113            ; error, ->
$00E334                 L114
$00E334     30 FE                       bmi     L114            ; error, ->
$00E336     A9 19                       lda     #$19
$00E338     85 03                       sta     Test
$00E33A     A9 00                       lda     #0
$00E33C     48                          pha
$00E33D     68                          pla
$00E33E                 L115
$00E33E     D0 FE                       bne     L115            ; error, ->
$00E340                 L116
$00E340     30 FE                       bmi     L116            ; error, ->
$00E342                 ;**  DEX
$00E342     A9 1A                       lda     #$1A
$00E344     85 03                       sta     Test
$00E346     A2 81                       ldx     #$81
$00E348     CA                          dex
$00E349                 L121
$00E349     F0 FE                       beq     L121            ; error, ->
$00E34B                 L122
$00E34B     10 FE                       bpl     L122            ; error, ->
$00E34D     CA                          dex
$00E34E                 L121a
$00E34E     F0 FE                       beq     L121a           ; error, ->
$00E350                 L122a
$00E350     30 FE                       bmi     L122a           ; error, ->
$00E352     A9 1B                       lda     #$1B
$00E354     85 03                       sta     Test
$00E356     A2 02                       ldx     #2
$00E358     CA                          dex
$00E359                 L121b
$00E359     F0 FE                       beq     L121b           ; error, ->
$00E35B                 L122b
$00E35B     30 FE                       bmi     L122b           ; error, ->
$00E35D     CA                          dex
$00E35E                 L121c
$00E35E     D0 FE                       bne     L121c           ; error, ->
$00E360                 L122c
$00E360     30 FE                       bmi     L122c           ; error, ->
$00E362     CA                          dex
$00E363                 L121d
$00E363     F0 FE                       beq     L121d           ; error, ->
$00E365                 L122d
$00E365     10 FE                       bpl     L122d           ; error, ->
$00E367                 ;**  INX
$00E367     A9 1C                       lda     #$1C
$00E369     85 03                       sta     Test
$00E36B     A2 FE                       ldx     #$FE
$00E36D     E8                          inx
$00E36E                 L121e
$00E36E     F0 FE                       beq     L121e           ; error, ->
$00E370                 L122e
$00E370     10 FE                       bpl     L122e           ; error, ->
$00E372     E8                          inx
$00E373                 L121f
$00E373     D0 FE                       bne     L121f           ; error, ->
$00E375                 L122f
$00E375     30 FE                       bmi     L122f           ; error, ->
$00E377     E8                          inx
$00E378                 L121g
$00E378     F0 FE                       beq     L121g           ; error, ->
$00E37A                 L122g
$00E37A     30 FE                       bmi     L122g           ; error, ->
$00E37C     A9 1D                       lda     #$1D
$00E37E     85 03                       sta     Test
$00E380     A2 7E                       ldx     #$7E
$00E382     E8                          inx
$00E383                 L121h
$00E383     F0 FE                       beq     L121h           ; error, ->
$00E385                 L122h
$00E385     30 FE                       bmi     L122h           ; error, ->
$00E387     E8                          inx
$00E388                 L121i
$00E388     F0 FE                       beq     L121i           ; error, ->
$00E38A                 L122i
$00E38A     10 FE                       bpl     L122i           ; error, ->
$00E38C                 ;**  DEY
$00E38C     A9 1E                       lda     #$1E
$00E38E     85 03                       sta     Test
$00E390     A0 81                       ldy     #$81
$00E392     88                          dey
$00E393                 L131
$00E393     F0 FE                       beq     L131            ; error, ->
$00E395                 L132
$00E395     10 FE                       bpl     L132            ; error, ->
$00E397     88                          dey
$00E398                 L131a
$00E398     F0 FE                       beq     L131a           ; error, ->
$00E39A                 L132a
$00E39A     30 FE                       bmi     L132a           ; error, ->
$00E39C     A9 1F                       lda     #$1F
$00E39E     85 03                       sta     Test
$00E3A0     A0 02                       ldy     #2
$00E3A2     88                          dey
$00E3A3                 L131b
$00E3A3     F0 FE                       beq     L131b           ; error, ->
$00E3A5                 L132b
$00E3A5     30 FE                       bmi     L132b           ; error, ->
$00E3A7     88                          dey
$00E3A8                 L131c
$00E3A8     D0 FE                       bne     L131c           ; error, ->
$00E3AA                 L132c
$00E3AA     30 FE                       bmi     L132c           ; error, ->
$00E3AC     88                          dey
$00E3AD                 L131d
$00E3AD     F0 FE                       beq     L131d           ; error, ->
$00E3AF                 L132d
$00E3AF     10 FE                       bpl     L132d           ; error, ->
$00E3B1                 ;**  INY
$00E3B1     A9 20                       lda     #$20
$00E3B3     85 03                       sta     Test
$00E3B5     A0 FE                       ldy     #$FE
$00E3B7     C8                          iny
$00E3B8                 L131e
$00E3B8     F0 FE                       beq     L131e           ; error, ->
$00E3BA                 L132e
$00E3BA     10 FE                       bpl     L132e           ; error, ->
$00E3BC     C8                          iny
$00E3BD                 L131f
$00E3BD     D0 FE                       bne     L131f           ; error, ->
$00E3BF                 L132f
$00E3BF     30 FE                       bmi     L132f           ; error, ->
$00E3C1     C8                          iny
$00E3C2                 L131g
$00E3C2     F0 FE                       beq     L131g           ; error, ->
$00E3C4                 L132g
$00E3C4     30 FE                       bmi     L132g           ; error, ->
$00E3C6     A9 21                       lda     #$21
$00E3C8     85 03                       sta     Test
$00E3CA     A0 7E                       ldy     #$7E
$00E3CC     C8                          iny
$00E3CD                 L131h
$00E3CD     F0 FE                       beq     L131h           ; error, ->
$00E3CF                 L132h
$00E3CF     30 FE                       bmi     L132h           ; error, ->
$00E3D1     C8                          iny
$00E3D2                 L131i
$00E3D2     F0 FE                       beq     L131i           ; error, ->
$00E3D4                 L132i
$00E3D4     10 FE                       bpl     L132i           ; error, ->
$00E3D6                 ;**  LDA indexed  (1)
$00E3D6                 ;* LDA $xx,X
$00E3D6     A9 22                       lda     #$22
$00E3D8     85 03                       sta     Test
$00E3DA     A9 A3                       lda     #$A3
$00E3DC     85 50                       sta     $50
$00E3DE     A2 30                       ldx     #$30
$00E3E0     B5 20                       lda     $20,X
$00E3E2                 L141
$00E3E2     F0 FE                       beq     L141            ; error, ->
$00E3E4                 L142
$00E3E4     10 FE                       bpl     L142            ; error, ->
$00E3E6     C9 A3                       cmp     #$A3
$00E3E8                 L143
$00E3E8     D0 FE                       bne     L143            ; error, ->
$00E3EA     A9 23                       lda     #$23
$00E3EC     85 03                       sta     Test
$00E3EE     A9 A9                       lda     #$A9
$00E3F0     85 20                       sta     $20
$00E3F2     B5 F0                       lda     $F0,X
$00E3F4                 L141a
$00E3F4     F0 FE                       beq     L141a           ; error, ->
$00E3F6                 L142a
$00E3F6     10 FE                       bpl     L142a           ; error, ->
$00E3F8     C9 A9                       cmp     #$A9
$00E3FA                 L143a
$00E3FA     D0 FE                       bne     L143a           ; error, ->
$00E3FC     A9 24                       lda     #$24
$00E3FE     85 03                       sta     Test
$00E400     A9 33                       lda     #$33
$00E402     85 50                       sta     $50
$00E404     B5 20                       lda     $20,X
$00E406                 L141b
$00E406     F0 FE                       beq     L141b           ; error, ->
$00E408                 L142b
$00E408     30 FE                       bmi     L142b           ; error, ->
$00E40A     C9 33                       cmp     #$33
$00E40C                 L143b
$00E40C     D0 FE                       bne     L143b           ; error, ->
$00E40E     A9 25                       lda     #$25
$00E410     85 03                       sta     Test
$00E412     A9 35                       lda     #$35
$00E414     85 20                       sta     $20
$00E416     B5 F0                       lda     $F0,X
$00E418                 L141c
$00E418     F0 FE                       beq     L141c           ; error, ->
$00E41A                 L142c
$00E41A     30 FE                       bmi     L142c           ; error, ->
$00E41C     C9 35                       cmp     #$35
$00E41E                 L143c
$00E41E     D0 FE                       bne     L143c           ; error, ->
$00E420     A9 26                       lda     #$26
$00E422     85 03                       sta     Test
$00E424     A9 00                       lda     #0
$00E426     85 50                       sta     $50
$00E428     B5 20                       lda     $20,X
$00E42A                 L141d
$00E42A     D0 FE                       bne     L141d           ; error, ->
$00E42C                 L142d
$00E42C     30 FE                       bmi     L142d           ; error, ->
$00E42E     C9 00                       cmp     #0
$00E430                 L143d
$00E430     D0 FE                       bne     L143d           ; error, ->
$00E432     A9 27                       lda     #$27
$00E434     85 03                       sta     Test
$00E436     A9 00                       lda     #0
$00E438     85 20                       sta     $20
$00E43A     B5 F0                       lda     $F0,X
$00E43C                 L141e
$00E43C     D0 FE                       bne     L141e           ; error, ->
$00E43E                 L142e
$00E43E     30 FE                       bmi     L142e           ; error, ->
$00E440     C9 00                       cmp     #0
$00E442                 L143e
$00E442     D0 FE                       bne     L143e           ; error, ->
$00E444                 ;* LDA $xxxx,X
$00E444     A9 28                       lda     #$28
$00E446     85 03                       sta     Test
$00E448     A9 AA                       lda     #$AA
$00E44A     8D 50 10                    sta     TmpAB0+$50
$00E44D     A2 30                       ldx     #$30
$00E44F     BD 20 10                    lda     TmpAB0+$20,X
$00E452                 L151
$00E452     F0 FE                       beq     L151            ; error, ->
$00E454                 L152
$00E454     10 FE                       bpl     L152            ; error, ->
$00E456     C9 AA                       cmp     #$AA
$00E458                 L153
$00E458     D0 FE                       bne     L153            ; error, ->
$00E45A     A9 29                       lda     #$29
$00E45C     85 03                       sta     Test
$00E45E     A9 33                       lda     #$33
$00E460     8D 50 10                    sta     TmpAB0+$50
$00E463     BD 20 10                    lda     TmpAB0+$20,X
$00E466                 L151a
$00E466     F0 FE                       beq     L151a           ; error, ->
$00E468                 L152a
$00E468     30 FE                       bmi     L152a           ; error, ->
$00E46A     C9 33                       cmp     #$33
$00E46C                 L153a
$00E46C     D0 FE                       bne     L153a           ; error, ->
$00E46E     A9 2A                       lda     #$2A
$00E470     85 03                       sta     Test
$00E472     A9 00                       lda     #0
$00E474     8D 50 10                    sta     TmpAB0+$50
$00E477     BD 20 10                    lda     TmpAB0+$20,X
$00E47A                 L151b
$00E47A     D0 FE                       bne     L151b           ; error, ->
$00E47C                 L152b
$00E47C     30 FE                       bmi     L152b           ; error, ->
$00E47E     C9 00                       cmp     #0
$00E480                 L153b
$00E480     D0 FE                       bne     L153b           ; error, ->
$00E482                 ;* LDA $xxxx,Y
$00E482     A9 2B                       lda     #$2B
$00E484     85 03                       sta     Test
$00E486     A9 AA                       lda     #$AA
$00E488     8D 50 10                    sta     TmpAB0+$50
$00E48B     A0 30                       ldy     #$30
$00E48D     B9 20 10                    lda     TmpAB0+$20,Y
$00E490                 L161
$00E490     F0 FE                       beq     L161            ; error, ->
$00E492                 L162
$00E492     10 FE                       bpl     L162            ; error, ->
$00E494     C9 AA                       cmp     #$AA
$00E496                 L163
$00E496     D0 FE                       bne     L163            ; error, ->
$00E498     A9 2C                       lda     #$2C
$00E49A     85 03                       sta     Test
$00E49C     A9 33                       lda     #$33
$00E49E     8D 50 10                    sta     TmpAB0+$50
$00E4A1     B9 20 10                    lda     TmpAB0+$20,Y
$00E4A4                 L161a
$00E4A4     F0 FE                       beq     L161a           ; error, ->
$00E4A6                 L162a
$00E4A6     30 FE                       bmi     L162a           ; error, ->
$00E4A8     C9 33                       cmp     #$33
$00E4AA                 L163a
$00E4AA     D0 FE                       bne     L163a           ; error, ->
$00E4AC     A9 2D                       lda     #$2D
$00E4AE     85 03                       sta     Test
$00E4B0     A9 00                       lda     #0
$00E4B2     8D 50 10                    sta     TmpAB0+$50
$00E4B5     B9 20 10                    lda     TmpAB0+$20,Y
$00E4B8                 L161b
$00E4B8     D0 FE                       bne     L161b           ; error, ->
$00E4BA                 L162b
$00E4BA     30 FE                       bmi     L162b           ; error, ->
$00E4BC     C9 00                       cmp     #0
$00E4BE                 L163b
$00E4BE     D0 FE                       bne     L163b           ; error, ->
$00E4C0                 ;**  STA indexed  (1)
$00E4C0                 ;* STA $xx,X
$00E4C0     A9 2E                       lda     #$2E
$00E4C2     85 03                       sta     Test
$00E4C4     85 50                       sta     $50
$00E4C6     85 20                       sta     $20
$00E4C8     A2 30                       ldx     #$30
$00E4CA     A9 CA                       lda     #$CA
$00E4CC     95 20                       sta     $20,X
$00E4CE     A5 50                       lda     $50
$00E4D0     C9 CA                       cmp     #$CA
$00E4D2                 L171
$00E4D2     D0 FE                       bne     L171            ; error, ->
$00E4D4     A9 2F                       lda     #$2F
$00E4D6     85 03                       sta     Test
$00E4D8     A9 AC                       lda     #$AC
$00E4DA     95 F0                       sta     $F0,X
$00E4DC     A5 20                       lda     $20
$00E4DE     C9 AC                       cmp     #$AC
$00E4E0                 L172
$00E4E0     D0 FE                       bne     L172            ; error, ->
$00E4E2     A9 30                       lda     #$30
$00E4E4     85 03                       sta     Test
$00E4E6     A9 5A                       lda     #$5A
$00E4E8     95 20                       sta     $20,X
$00E4EA     A5 50                       lda     $50
$00E4EC     C9 5A                       cmp     #$5A
$00E4EE                 L173
$00E4EE     D0 FE                       bne     L173            ; error, ->
$00E4F0     A9 31                       lda     #$31
$00E4F2     85 03                       sta     Test
$00E4F4     A9 5C                       lda     #$5C
$00E4F6     95 F0                       sta     $F0,X
$00E4F8     A5 20                       lda     $20
$00E4FA     C9 5C                       cmp     #$5C
$00E4FC                 L174
$00E4FC     D0 FE                       bne     L174            ; error, ->
$00E4FE     A9 32                       lda     #$32
$00E500     85 03                       sta     Test
$00E502     A9 00                       lda     #0
$00E504     95 20                       sta     $20,X
$00E506     A5 50                       lda     $50
$00E508                 L175
$00E508     D0 FE                       bne     L175            ; error, ->
$00E50A     A9 33                       lda     #$33
$00E50C     85 03                       sta     Test
$00E50E     A9 00                       lda     #0
$00E510     95 F0                       sta     $F0,X
$00E512     A5 20                       lda     $20
$00E514                 L176
$00E514     D0 FE                       bne     L176            ; error, ->
$00E516                 ;* STA $xxxx,X
$00E516     A9 34                       lda     #$34
$00E518     85 03                       sta     Test
$00E51A     8D 50 10                    sta     TmpAB0+$50
$00E51D     A9 AA                       lda     #$AA
$00E51F     9D 20 10                    sta     TmpAB0+$20,X
$00E522     AD 50 10                    lda     TmpAB0+$50
$00E525     C9 AA                       cmp     #$AA
$00E527                 L177
$00E527     D0 FE                       bne     L177            ; error, ->
$00E529     A9 35                       lda     #$35
$00E52B     85 03                       sta     Test
$00E52D     8D 50 10                    sta     TmpAB0+$50
$00E530     A9 55                       lda     #$55
$00E532     9D 20 10                    sta     TmpAB0+$20,X
$00E535     AD 50 10                    lda     TmpAB0+$50
$00E538     C9 55                       cmp     #$55
$00E53A                 L178
$00E53A     D0 FE                       bne     L178            ; error, ->
$00E53C     A9 36                       lda     #$36
$00E53E     85 03                       sta     Test
$00E540     8D 50 10                    sta     TmpAB0+$50
$00E543     A9 00                       lda     #0
$00E545     9D 20 10                    sta     TmpAB0+$20,X
$00E548     AD 50 10                    lda     TmpAB0+$50
$00E54B                 L179
$00E54B     D0 FE                       bne     L179            ; error, ->
$00E54D                 ;* STA $xxxx,Y
$00E54D     A9 37                       lda     #$37
$00E54F     85 03                       sta     Test
$00E551     8D 50 10                    sta     TmpAB0+$50
$00E554     A9 AA                       lda     #$AA
$00E556     99 20 10                    sta     TmpAB0+$20,Y
$00E559     AD 50 10                    lda     TmpAB0+$50
$00E55C     C9 AA                       cmp     #$AA
$00E55E                 L179a
$00E55E     D0 FE                       bne     L179a           ; error, ->
$00E560     A9 38                       lda     #$38
$00E562     85 03                       sta     Test
$00E564     8D 50 10                    sta     TmpAB0+$50
$00E567     A9 55                       lda     #$55
$00E569     9D 20 10                    sta     TmpAB0+$20,X
$00E56C     AD 50 10                    lda     TmpAB0+$50
$00E56F     C9 55                       cmp     #$55
$00E571                 L179b
$00E571     D0 FE                       bne     L179b           ; error, ->
$00E573     A9 39                       lda     #$39
$00E575     85 03                       sta     Test
$00E577     8D 50 10                    sta     TmpAB0+$50
$00E57A     A9 00                       lda     #0
$00E57C     9D 20 10                    sta     TmpAB0+$20,X
$00E57F     AD 50 10                    lda     TmpAB0+$50
$00E582                 L179c
$00E582     D0 FE                       bne     L179c           ; error, ->
$00E584                 ;**  LDA indexed  (2)
$00E584                 ;* LDA ($xx,X)
$00E584     A9 3A                       lda     #$3A
$00E586     85 03                       sta     Test
$00E588     A9 AA                       lda     #$AA
$00E58A     85 50                       sta     $50
$00E58C     8D AA 10                    sta     TmpAB0+$AA
$00E58F     A9 10                       lda     #$10
$00E591     85 51                       sta     $51
$00E593     A2 30                       ldx     #$30
$00E595     A1 20                       lda     ($20,X)
$00E597                 L181
$00E597     F0 FE                       beq     L181            ; error, ->
$00E599                 L182
$00E599     10 FE                       bpl     L182            ; error, ->
$00E59B     C9 AA                       cmp     #$AA
$00E59D                 L183
$00E59D     D0 FE                       bne     L183            ; error, ->
$00E59F     A9 3B                       lda     #$3B
$00E5A1     85 03                       sta     Test
$00E5A3     A9 AA                       lda     #$AA
$00E5A5     85 20                       sta     $20
$00E5A7     A9 10                       lda     #$10
$00E5A9     85 21                       sta     $21
$00E5AB     A1 F0                       lda     ($F0,X)
$00E5AD                 L181a
$00E5AD     F0 FE                       beq     L181a           ; error, ->
$00E5AF                 L182a
$00E5AF     10 FE                       bpl     L182a           ; error, ->
$00E5B1     C9 AA                       cmp     #$AA
$00E5B3                 L183a
$00E5B3     D0 FE                       bne     L183a           ; error, ->
$00E5B5     A9 3C                       lda     #$3C
$00E5B7     85 03                       sta     Test
$00E5B9     A9 33                       lda     #$33
$00E5BB     8D AA 10                    sta     TmpAB0+$AA
$00E5BE     A1 20                       lda     ($20,X)
$00E5C0                 L181b
$00E5C0     F0 FE                       beq     L181b           ; error, ->
$00E5C2                 L182b
$00E5C2     30 FE                       bmi     L182b           ; error, ->
$00E5C4     C9 33                       cmp     #$33
$00E5C6                 L183b
$00E5C6     D0 FE                       bne     L183b           ; error, ->
$00E5C8     A9 3D                       lda     #$3D
$00E5CA     85 03                       sta     Test
$00E5CC     A9 33                       lda     #$33
$00E5CE     8D AA 10                    sta     TmpAB0+$AA
$00E5D1     A1 F0                       lda     ($F0,X)
$00E5D3                 L181c
$00E5D3     F0 FE                       beq     L181c           ; error, ->
$00E5D5                 L182c
$00E5D5     30 FE                       bmi     L182c           ; error, ->
$00E5D7     C9 33                       cmp     #$33
$00E5D9                 L183c
$00E5D9     D0 FE                       bne     L183c           ; error, ->
$00E5DB     A9 3E                       lda     #$3E
$00E5DD     85 03                       sta     Test
$00E5DF     A9 00                       lda     #0
$00E5E1     8D AA 10                    sta     TmpAB0+$AA
$00E5E4     A1 20                       lda     ($20,X)
$00E5E6                 L181d
$00E5E6     D0 FE                       bne     L181d           ; error, ->
$00E5E8                 L182d
$00E5E8     30 FE                       bmi     L182d           ; error, ->
$00E5EA     C9 00                       cmp     #0
$00E5EC                 L183d
$00E5EC     D0 FE                       bne     L183d           ; error, ->
$00E5EE     A9 3F                       lda     #$3F
$00E5F0     85 03                       sta     Test
$00E5F2     A9 00                       lda     #0
$00E5F4     8D AA 10                    sta     TmpAB0+$AA
$00E5F7     A1 F0                       lda     ($F0,X)
$00E5F9                 L181e
$00E5F9     D0 FE                       bne     L181e           ; error, ->
$00E5FB                 L182e
$00E5FB     30 FE                       bmi     L182e           ; error, ->
$00E5FD     C9 00                       cmp     #0
$00E5FF                 L183e
$00E5FF     D0 FE                       bne     L183e           ; error, ->
$00E601                 ;* LDA ($xx),Y
$00E601     A9 40                       lda     #$40
$00E603     85 03                       sta     Test
$00E605     A9 AA                       lda     #$AA
$00E607     8D AA 10                    sta     TmpAB0+$AA
$00E60A     A9 00                       lda     #0
$00E60C     85 50                       sta     $50
$00E60E     A9 10                       lda     #$10
$00E610     85 51                       sta     $51
$00E612     A0 AA                       ldy     #$AA
$00E614     B1 50                       lda     ($50),Y
$00E616                 L191
$00E616     F0 FE                       beq     L191            ; error, ->
$00E618                 L192
$00E618     10 FE                       bpl     L192            ; error, ->
$00E61A     C9 AA                       cmp     #$AA
$00E61C                 L193
$00E61C     D0 FE                       bne     L193            ; error, ->
$00E61E     A9 41                       lda     #$41
$00E620     85 03                       sta     Test
$00E622     A9 55                       lda     #$55
$00E624     8D AA 10                    sta     TmpAB0+$AA
$00E627     B1 50                       lda     ($50),Y
$00E629                 L194
$00E629     F0 FE                       beq     L194            ; error, ->
$00E62B                 L195
$00E62B     30 FE                       bmi     L195            ; error, ->
$00E62D     C9 55                       cmp     #$55
$00E62F                 L196
$00E62F     D0 FE                       bne     L196            ; error, ->
$00E631     A9 42                       lda     #$42
$00E633     85 03                       sta     Test
$00E635     A9 00                       lda     #0
$00E637     8D AA 10                    sta     TmpAB0+$AA
$00E63A     B1 50                       lda     ($50),Y
$00E63C                 L197
$00E63C     D0 FE                       bne     L197            ; error, ->
$00E63E                 L198
$00E63E     30 FE                       bmi     L198            ; error, ->
$00E640     C9 00                       cmp     #0
$00E642                 L199
$00E642     D0 FE                       bne     L199            ; error, ->
$00E644                 ;**  STA indexed  (2)
$00E644                 ;* STA ($xx,X)
$00E644     A9 43                       lda     #$43
$00E646     85 03                       sta     Test
$00E648     8D AA 10                    sta     TmpAB0+$AA
$00E64B     A9 10                       lda     #$10
$00E64D     85 51                       sta     $51
$00E64F     A9 AA                       lda     #$AA
$00E651     85 50                       sta     $50
$00E653     A2 30                       ldx     #$30
$00E655     81 20                       sta     ($20,X)
$00E657     AD AA 10                    lda     TmpAB0+$AA
$00E65A     C9 AA                       cmp     #$AA
$00E65C                 L201
$00E65C     D0 FE                       bne     L201            ; error, ->
$00E65E     A9 44                       lda     #$44
$00E660     85 03                       sta     Test
$00E662     8D AA 10                    sta     TmpAB0+$AA
$00E665     A9 AA                       lda     #$AA
$00E667     85 20                       sta     $20
$00E669     A9 10                       lda     #$10
$00E66B     85 21                       sta     $21
$00E66D     A9 AA                       lda     #$AA
$00E66F     81 F0                       sta     ($F0,X)
$00E671     AD AA 10                    lda     TmpAB0+$AA
$00E674     C9 AA                       cmp     #$AA
$00E676                 L202
$00E676     D0 FE                       bne     L202            ; error, ->
$00E678     A9 45                       lda     #$45
$00E67A     85 03                       sta     Test
$00E67C     8D AA 10                    sta     TmpAB0+$AA
$00E67F     A9 55                       lda     #$55
$00E681     81 20                       sta     ($20,X)
$00E683     AD AA 10                    lda     TmpAB0+$AA
$00E686     C9 55                       cmp     #$55
$00E688                 L203
$00E688     D0 FE                       bne     L203            ; error, ->
$00E68A     A9 46                       lda     #$46
$00E68C     85 03                       sta     Test
$00E68E     8D AA 10                    sta     TmpAB0+$AA
$00E691     A9 55                       lda     #$55
$00E693     81 F0                       sta     ($F0,X)
$00E695     AD AA 10                    lda     TmpAB0+$AA
$00E698     C9 55                       cmp     #$55
$00E69A                 L204
$00E69A     D0 FE                       bne     L204            ; error, ->
$00E69C     A9 47                       lda     #$47
$00E69E     85 03                       sta     Test
$00E6A0     8D AA 10                    sta     TmpAB0+$AA
$00E6A3     A9 00                       lda     #0
$00E6A5     81 20                       sta     ($20,X)
$00E6A7     AD AA 10                    lda     TmpAB0+$AA
$00E6AA                 L205
$00E6AA     D0 FE                       bne     L205            ; error, ->
$00E6AC     A9 47                       lda     #$47
$00E6AE     85 03                       sta     Test
$00E6B0     8D AA 10                    sta     TmpAB0+$AA
$00E6B3     A9 00                       lda     #0
$00E6B5     81 F0                       sta     ($F0,X)
$00E6B7     AD AA 10                    lda     TmpAB0+$AA
$00E6BA                 L206
$00E6BA     D0 FE                       bne     L206            ; error, ->
$00E6BC                 ;* STA ($xx),Y
$00E6BC     A9 49                       lda     #$49
$00E6BE     85 03                       sta     Test
$00E6C0     8D AA 10                    sta     TmpAB0+$AA
$00E6C3     A9 10                       lda     #$10
$00E6C5     85 19                       sta     $19
$00E6C7     A9 00                       lda     #0
$00E6C9     85 18                       sta     $18
$00E6CB     A0 AA                       ldy     #$AA
$00E6CD     A9 AA                       lda     #$AA
$00E6CF     91 18                       sta     ($18),Y
$00E6D1     AD AA 10                    lda     TmpAB0+$AA
$00E6D4     C9 AA                       cmp     #$AA
$00E6D6                 L211
$00E6D6     D0 FE                       bne     L211            ; error, ->
$00E6D8     A9 4A                       lda     #$4A
$00E6DA     85 03                       sta     Test
$00E6DC     8D AA 10                    sta     TmpAB0+$AA
$00E6DF     A9 55                       lda     #$55
$00E6E1     91 18                       sta     ($18),Y
$00E6E3     AD AA 10                    lda     TmpAB0+$AA
$00E6E6     C9 55                       cmp     #$55
$00E6E8                 L212
$00E6E8     D0 FE                       bne     L212            ; error, ->
$00E6EA     A9 56                       lda     #$56 ;4B
$00E6EC     85 03                       sta     Test
$00E6EE     8D AA 10                    sta     TmpAB0+$AA
$00E6F1     A9 00                       lda     #0
$00E6F3     91 18                       sta     ($18),Y
$00E6F5     AD AA 10                    lda     TmpAB0+$AA
$00E6F8                 L213
$00E6F8     D0 FE                       bne     L213            ; error, ->
$00E6FA                 ;**  ADC  (1)
$00E6FA                 ;  CLC          ; $30 + $30 = $60, returns C = 0, returns V = 0
$00E6FA                 ;  LDA #$30
$00E6FA                 ;  ADC #$30
$00E6FA     A9 4C                       lda     #$4C
$00E6FC     85 03                       sta     Test
$00E6FE     D8                          cld
$00E6FF     A9 30                       lda     #$30
$00E701     85 10                       sta     TmpZP0
$00E703     8D 00 10                    sta     TmpAB0
$00E706     18                          clc
$00E707     69 30                       adc     #$30
$00E709                 L221
$00E709     B0 FE                       bcs     L221            ; error, ->
$00E70B                 L222
$00E70B     70 FE                       bvs     L222            ; error, ->
$00E70D                 L223
$00E70D     F0 FE                       beq     L223            ; error, ->
$00E70F                 L224
$00E70F     30 FE                       bmi     L224            ; error, ->
$00E711     C9 60                       cmp     #$60
$00E713                 L225
$00E713     D0 FE                       bne     L225            ; error, ->
$00E715     A9 4D                       lda     #$4D
$00E717     85 03                       sta     Test
$00E719     18                          clc
$00E71A     A9 30                       lda     #$30
$00E71C     65 10                       adc     TmpZP0
$00E71E                 L221a
$00E71E     B0 FE                       bcs     L221a           ; error, ->
$00E720                 L222a
$00E720     70 FE                       bvs     L222a           ; error, ->
$00E722                 L223a
$00E722     F0 FE                       beq     L223a           ; error, ->
$00E724                 L224a
$00E724     30 FE                       bmi     L224a           ; error, ->
$00E726     C9 60                       cmp     #$60
$00E728                 L225a
$00E728     D0 FE                       bne     L225a           ; error, ->
$00E72A     A9 4E                       lda     #$4E
$00E72C     85 03                       sta     Test
$00E72E     18                          clc
$00E72F     A9 30                       lda     #$30
$00E731     6D 00 10                    adc     TmpAB0
$00E734                 L221b
$00E734     B0 FE                       bcs     L221b           ; error, ->
$00E736                 L222b
$00E736     70 FE                       bvs     L222b           ; error, ->
$00E738                 L223b
$00E738     F0 FE                       beq     L223b           ; error, ->
$00E73A                 L224b
$00E73A     30 FE                       bmi     L224b           ; error, ->
$00E73C     C9 60                       cmp     #$60
$00E73E                 L225b
$00E73E     D0 FE                       bne     L225b           ; error, ->
$00E740     A9 4F                       lda     #$4F
$00E742     85 03                       sta     Test
$00E744     A9 30                       lda     #$30
$00E746     AA                          tax
$00E747     95 30                       sta     $30,X
$00E749     18                          clc
$00E74A     75 30                       adc     $30,X
$00E74C                 L221c
$00E74C     B0 FE                       bcs     L221c           ; error, ->
$00E74E                 L222c
$00E74E     70 FE                       bvs     L222c           ; error, ->
$00E750                 L223c
$00E750     F0 FE                       beq     L223c           ; error, ->
$00E752                 L224c
$00E752     30 FE                       bmi     L224c           ; error, ->
$00E754     C9 60                       cmp     #$60
$00E756                 L225c
$00E756     D0 FE                       bne     L225c           ; error, ->
$00E758     A9 50                       lda     #$50
$00E75A     85 03                       sta     Test
$00E75C     A9 30                       lda     #$30
$00E75E     9D 00 10                    sta     TmpAB0,X
$00E761     18                          clc
$00E762     7D 00 10                    adc     TmpAB0,X
$00E765                 L221d
$00E765     B0 FE                       bcs     L221d           ; error, ->
$00E767                 L222d
$00E767     70 FE                       bvs     L222d           ; error, ->
$00E769                 L223d
$00E769     F0 FE                       beq     L223d           ; error, ->
$00E76B                 L224d
$00E76B     30 FE                       bmi     L224d           ; error, ->
$00E76D     C9 60                       cmp     #$60
$00E76F                 L225d
$00E76F     D0 FE                       bne     L225d           ; error, ->
$00E771     A9 51                       lda     #$51
$00E773     85 03                       sta     Test
$00E775     A9 30                       lda     #$30
$00E777     A8                          tay
$00E778     99 00 10                    sta     TmpAB0,Y
$00E77B     18                          clc
$00E77C     79 00 10                    adc     TmpAB0,Y
$00E77F                 L221e
$00E77F     B0 FE                       bcs     L221e           ; error, ->
$00E781                 L222e
$00E781     70 FE                       bvs     L222e           ; error, ->
$00E783                 L223e
$00E783     F0 FE                       beq     L223e           ; error, ->
$00E785                 L224e
$00E785     30 FE                       bmi     L224e           ; error, ->
$00E787     C9 60                       cmp     #$60
$00E789                 L225e
$00E789     D0 FE                       bne     L225e           ; error, ->
$00E78B     A9 52                       lda     #$52
$00E78D     85 03                       sta     Test
$00E78F     A9 10                       lda     #$10
$00E791     85 51                       sta     $51
$00E793     85 21                       sta     $21
$00E795     A9 AA                       lda     #$AA
$00E797     85 50                       sta     $50
$00E799     85 20                       sta     $20
$00E79B     A2 30                       ldx     #$30
$00E79D     8A                          txa
$00E79E     81 20                       sta     ($20,X)
$00E7A0     18                          clc
$00E7A1     61 20                       adc     ($20,X)
$00E7A3                 L221f
$00E7A3     B0 FE                       bcs     L221f           ; error, ->
$00E7A5                 L222f
$00E7A5     70 FE                       bvs     L222f           ; error, ->
$00E7A7                 L223f
$00E7A7     F0 FE                       beq     L223f           ; error, ->
$00E7A9                 L224f
$00E7A9     30 FE                       bmi     L224f           ; error, ->
$00E7AB     C9 60                       cmp     #$60
$00E7AD                 L225f
$00E7AD     D0 FE                       bne     L225f           ; error, ->
$00E7AF     A9 53                       lda     #$53
$00E7B1     85 03                       sta     Test
$00E7B3     A9 30                       lda     #$30
$00E7B5     81 F0                       sta     ($F0,X)
$00E7B7     18                          clc
$00E7B8     61 F0                       adc     ($F0,X)
$00E7BA                 L221g
$00E7BA     B0 FE                       bcs     L221g           ; error, ->
$00E7BC                 L222g
$00E7BC     70 FE                       bvs     L222g           ; error, ->
$00E7BE                 L223g
$00E7BE     F0 FE                       beq     L223g           ; error, ->
$00E7C0                 L224g
$00E7C0     30 FE                       bmi     L224g           ; error, ->
$00E7C2     C9 60                       cmp     #$60
$00E7C4                 L225g
$00E7C4     D0 FE                       bne     L225g           ; error, ->
$00E7C6                 ;  CLC          ; $30 + $D0 = $00, returns C = 1, returns V = 0
$00E7C6                 ;  LDA #$30
$00E7C6                 ;  ADC #$D0
$00E7C6     A9 54                       lda     #$54
$00E7C8     85 03                       sta     Test
$00E7CA     A9 D0                       lda     #$D0
$00E7CC     85 10                       sta     TmpZP0
$00E7CE     8D 00 10                    sta     TmpAB0
$00E7D1     18                          clc
$00E7D2     A9 30                       lda     #$30
$00E7D4     69 D0                       adc     #$D0
$00E7D6                 L231
$00E7D6     90 FE                       bcc     L231            ; error, ->
$00E7D8                 L232
$00E7D8     70 FE                       bvs     L232            ; error, ->
$00E7DA                 L233
$00E7DA     D0 FE                       bne     L233            ; error, ->
$00E7DC                 L234
$00E7DC     30 FE                       bmi     L234            ; error, ->
$00E7DE     C9 00                       cmp     #0
$00E7E0                 L235
$00E7E0     D0 FE                       bne     L235            ; error, ->
$00E7E2     A9 55                       lda     #$55
$00E7E4     85 03                       sta     Test
$00E7E6     18                          clc
$00E7E7     A9 30                       lda     #$30
$00E7E9     65 10                       adc     TmpZP0
$00E7EB                 L231a
$00E7EB     90 FE                       bcc     L231a           ; error, ->
$00E7ED                 L232a
$00E7ED     70 FE                       bvs     L232a           ; error, ->
$00E7EF                 L233a
$00E7EF     D0 FE                       bne     L233a           ; error, ->
$00E7F1                 L234a
$00E7F1     30 FE                       bmi     L234a           ; error, ->
$00E7F3     C9 00                       cmp     #0
$00E7F5                 L235a
$00E7F5     D0 FE                       bne     L235a           ; error, ->
$00E7F7     A9 56                       lda     #$56
$00E7F9     85 03                       sta     Test
$00E7FB     18                          clc
$00E7FC     A9 30                       lda     #$30
$00E7FE     6D 00 10                    adc     TmpAB0
$00E801                 L231b
$00E801     90 FE                       bcc     L231b           ; error, ->
$00E803                 L232b
$00E803     70 FE                       bvs     L232b           ; error, ->
$00E805                 L233b
$00E805     D0 FE                       bne     L233b           ; error, ->
$00E807                 L234b
$00E807     30 FE                       bmi     L234b           ; error, ->
$00E809     C9 00                       cmp     #0
$00E80B                 L235b
$00E80B     D0 FE                       bne     L235b           ; error, ->
$00E80D     A9 57                       lda     #$57
$00E80F     85 03                       sta     Test
$00E811     A2 30                       ldx     #$30
$00E813     A9 D0                       lda     #$D0
$00E815     95 30                       sta     $30,X
$00E817     18                          clc
$00E818     A9 30                       lda     #$30
$00E81A     75 30                       adc     $30,X
$00E81C                 L231c
$00E81C     90 FE                       bcc     L231c           ; error, ->
$00E81E                 L232c
$00E81E     70 FE                       bvs     L232c           ; error, ->
$00E820                 L233c
$00E820     D0 FE                       bne     L233c           ; error, ->
$00E822                 L234c
$00E822     30 FE                       bmi     L234c           ; error, ->
$00E824     C9 00                       cmp     #0
$00E826                 L235c
$00E826     D0 FE                       bne     L235c           ; error, ->
$00E828     A9 58                       lda     #$58
$00E82A     85 03                       sta     Test
$00E82C     A9 D0                       lda     #$D0
$00E82E     9D 00 10                    sta     TmpAB0,X
$00E831     18                          clc
$00E832     A9 30                       lda     #$30
$00E834     7D 00 10                    adc     TmpAB0,X
$00E837                 L231d
$00E837     90 FE                       bcc     L231d           ; error, ->
$00E839                 L232d
$00E839     70 FE                       bvs     L232d           ; error, ->
$00E83B                 L233d
$00E83B     D0 FE                       bne     L233d           ; error, ->
$00E83D                 L234d
$00E83D     30 FE                       bmi     L234d           ; error, ->
$00E83F     C9 00                       cmp     #0
$00E841                 L235d
$00E841     D0 FE                       bne     L235d           ; error, ->
$00E843     A9 59                       lda     #$59
$00E845     85 03                       sta     Test
$00E847     A0 30                       ldy     #$30
$00E849     A9 D0                       lda     #$D0
$00E84B     99 00 10                    sta     TmpAB0,Y
$00E84E     18                          clc
$00E84F     A9 30                       lda     #$30
$00E851     79 00 10                    adc     TmpAB0,Y
$00E854                 L231e
$00E854     90 FE                       bcc     L231e           ; error, ->
$00E856                 L232e
$00E856     70 FE                       bvs     L232e           ; error, ->
$00E858                 L233e
$00E858     D0 FE                       bne     L233e           ; error, ->
$00E85A                 L234e
$00E85A     30 FE                       bmi     L234e           ; error, ->
$00E85C     C9 00                       cmp     #0
$00E85E                 L235e
$00E85E     D0 FE                       bne     L235e           ; error, ->
$00E860     A9 5A                       lda     #$5A
$00E862     85 03                       sta     Test
$00E864     A9 10                       lda     #$10
$00E866     85 51                       sta     $51
$00E868     85 21                       sta     $21
$00E86A     A9 AA                       lda     #$AA
$00E86C     85 50                       sta     $50
$00E86E     85 20                       sta     $20
$00E870     A9 D0                       lda     #$D0
$00E872     81 20                       sta     ($20,X)
$00E874     18                          clc
$00E875     A9 30                       lda     #$30
$00E877     61 20                       adc     ($20,X)
$00E879                 L231f
$00E879     90 FE                       bcc     L231f           ; error, ->
$00E87B                 L232f
$00E87B     70 FE                       bvs     L232f           ; error, ->
$00E87D                 L233f
$00E87D     D0 FE                       bne     L233f           ; error, ->
$00E87F                 L234f
$00E87F     30 FE                       bmi     L234f           ; error, ->
$00E881     C9 00                       cmp     #0
$00E883                 L235f
$00E883     D0 FE                       bne     L235f           ; error, ->
$00E885     A9 5B                       lda     #$5B
$00E887     85 03                       sta     Test
$00E889     A9 D0                       lda     #$D0
$00E88B     81 F0                       sta     ($F0,X)
$00E88D     18                          clc
$00E88E     A9 30                       lda     #$30
$00E890     61 F0                       adc     ($F0,X)
$00E892                 L231g
$00E892     90 FE                       bcc     L231g           ; error, ->
$00E894                 L232g
$00E894     70 FE                       bvs     L232g           ; error, ->
$00E896                 L233g
$00E896     D0 FE                       bne     L233g           ; error, ->
$00E898                 L234g
$00E898     30 FE                       bmi     L234g           ; error, ->
$00E89A     C9 00                       cmp     #0
$00E89C                 L235g
$00E89C     D0 FE                       bne     L235g           ; error, ->
$00E89E                 ;  CLC          ; $30 + $50 = $80, returns C = 0, returns V = 1
$00E89E                 ;  LDA #$30
$00E89E                 ;  ADC #$50
$00E89E     A9 5C                       lda     #$5C
$00E8A0     85 03                       sta     Test
$00E8A2     A9 50                       lda     #$50
$00E8A4     85 10                       sta     TmpZP0
$00E8A6     8D 00 10                    sta     TmpAB0
$00E8A9     18                          clc
$00E8AA     A9 30                       lda     #$30
$00E8AC     69 50                       adc     #$50
$00E8AE                 L241
$00E8AE     B0 FE                       bcs     L241            ; error, ->
$00E8B0                 L242
$00E8B0     50 FE                       bvc     L242            ; error, ->
$00E8B2                 L243
$00E8B2     F0 FE                       beq     L243            ; error, ->
$00E8B4                 L244
$00E8B4     10 FE                       bpl     L244            ; error, ->
$00E8B6     C9 80                       cmp     #$80
$00E8B8                 L245
$00E8B8     D0 FE                       bne     L245            ; error, ->
$00E8BA     A9 5D                       lda     #$5D
$00E8BC     85 03                       sta     Test
$00E8BE     18                          clc
$00E8BF     A9 30                       lda     #$30
$00E8C1     65 10                       adc     TmpZP0
$00E8C3                 L241a
$00E8C3     B0 FE                       bcs     L241a           ; error, ->
$00E8C5                 L242a
$00E8C5     50 FE                       bvc     L242a           ; error, ->
$00E8C7                 L243a
$00E8C7     F0 FE                       beq     L243a           ; error, ->
$00E8C9                 L244a
$00E8C9     10 FE                       bpl     L244a           ; error, ->
$00E8CB     C9 80                       cmp     #$80
$00E8CD                 L245a
$00E8CD     D0 FE                       bne     L245a           ; error, ->
$00E8CF     A9 5E                       lda     #$5E
$00E8D1     85 03                       sta     Test
$00E8D3     18                          clc
$00E8D4     A9 30                       lda     #$30
$00E8D6     6D 00 10                    adc     TmpAB0
$00E8D9                 L241b
$00E8D9     B0 FE                       bcs     L241b           ; error, ->
$00E8DB                 L242b
$00E8DB     50 FE                       bvc     L242b           ; error, ->
$00E8DD                 L243b
$00E8DD     F0 FE                       beq     L243b           ; error, ->
$00E8DF                 L244b
$00E8DF     10 FE                       bpl     L244b           ; error, ->
$00E8E1     C9 80                       cmp     #$80
$00E8E3                 L245b
$00E8E3     D0 FE                       bne     L245b           ; error, ->
$00E8E5     A9 5F                       lda     #$5F
$00E8E7     85 03                       sta     Test
$00E8E9     A2 30                       ldx     #$30
$00E8EB     A9 50                       lda     #$50
$00E8ED     95 30                       sta     $30,X
$00E8EF     18                          clc
$00E8F0     A9 30                       lda     #$30
$00E8F2     75 30                       adc     $30,X
$00E8F4                 L241c
$00E8F4     B0 FE                       bcs     L241c           ; error, ->
$00E8F6                 L242c
$00E8F6     50 FE                       bvc     L242c           ; error, ->
$00E8F8                 L243c
$00E8F8     F0 FE                       beq     L243c           ; error, ->
$00E8FA                 L244c
$00E8FA     10 FE                       bpl     L244c           ; error, ->
$00E8FC     C9 80                       cmp     #$80
$00E8FE                 L245c
$00E8FE     D0 FE                       bne     L245c           ; error, ->
$00E900     A9 60                       lda     #$60
$00E902     85 03                       sta     Test
$00E904     A9 50                       lda     #$50
$00E906     9D 00 10                    sta     TmpAB0,X
$00E909     18                          clc
$00E90A     A9 30                       lda     #$30
$00E90C     7D 00 10                    adc     TmpAB0,X
$00E90F                 L241d
$00E90F     B0 FE                       bcs     L241d           ; error, ->
$00E911                 L242d
$00E911     50 FE                       bvc     L242d           ; error, ->
$00E913                 L243d
$00E913     F0 FE                       beq     L243d           ; error, ->
$00E915                 L244d
$00E915     10 FE                       bpl     L244d           ; error, ->
$00E917     C9 80                       cmp     #$80
$00E919                 L245d
$00E919     D0 FE                       bne     L245d           ; error, ->
$00E91B     A9 61                       lda     #$61
$00E91D     85 03                       sta     Test
$00E91F     A0 30                       ldy     #$30
$00E921     A9 50                       lda     #$50
$00E923     99 00 10                    sta     TmpAB0,Y
$00E926     18                          clc
$00E927     A9 30                       lda     #$30
$00E929     79 00 10                    adc     TmpAB0,Y
$00E92C                 L241e
$00E92C     B0 FE                       bcs     L241e           ; error, ->
$00E92E                 L242e
$00E92E     50 FE                       bvc     L242e           ; error, ->
$00E930                 L243e
$00E930     F0 FE                       beq     L243e           ; error, ->
$00E932                 L244e
$00E932     10 FE                       bpl     L244e           ; error, ->
$00E934     C9 80                       cmp     #$80
$00E936                 L245e
$00E936     D0 FE                       bne     L245e           ; error, ->
$00E938     A9 62                       lda     #$62
$00E93A     85 03                       sta     Test
$00E93C     A9 10                       lda     #$10
$00E93E     85 51                       sta     $51
$00E940     85 21                       sta     $21
$00E942     A9 AA                       lda     #$AA
$00E944     85 50                       sta     $50
$00E946     85 20                       sta     $20
$00E948     A9 50                       lda     #$50
$00E94A     81 20                       sta     ($20,X)
$00E94C     18                          clc
$00E94D     A9 30                       lda     #$30
$00E94F     61 20                       adc     ($20,X)
$00E951                 L241f
$00E951     B0 FE                       bcs     L241f           ; error, ->
$00E953                 L242f
$00E953     50 FE                       bvc     L242f           ; error, ->
$00E955                 L243f
$00E955     F0 FE                       beq     L243f           ; error, ->
$00E957                 L244f
$00E957     10 FE                       bpl     L244f           ; error, ->
$00E959     C9 80                       cmp     #$80
$00E95B                 L245f
$00E95B     D0 FE                       bne     L245f           ; error, ->
$00E95D     A9 63                       lda     #$63
$00E95F     85 03                       sta     Test
$00E961     A9 50                       lda     #$50
$00E963     81 F0                       sta     ($F0,X)
$00E965     18                          clc
$00E966     A9 30                       lda     #$30
$00E968     61 F0                       adc     ($F0,X)
$00E96A                 L241g
$00E96A     B0 FE                       bcs     L241g           ; error, ->
$00E96C                 L242g
$00E96C     50 FE                       bvc     L242g           ; error, ->
$00E96E                 L243g
$00E96E     F0 FE                       beq     L243g           ; error, ->
$00E970                 L244g
$00E970     10 FE                       bpl     L244g           ; error, ->
$00E972     C9 80                       cmp     #$80
$00E974                 L245g
$00E974     D0 FE                       bne     L245g           ; error, ->
$00E976                 ;  CLC          ; $80 + $FF = $7F, returns C = 1, returns V = 1
$00E976                 ;  LDA #$80
$00E976                 ;  ADC #$FF
$00E976     A9 64                       lda     #$64
$00E978     85 03                       sta     Test
$00E97A     A9 FF                       lda     #$FF
$00E97C     85 10                       sta     TmpZP0
$00E97E     8D 00 10                    sta     TmpAB0
$00E981     18                          clc
$00E982     A9 80                       lda     #$80
$00E984     69 FF                       adc     #$FF
$00E986                 L251
$00E986     90 FE                       bcc     L251            ; error, ->
$00E988                 L252
$00E988     50 FE                       bvc     L252            ; error, ->
$00E98A                 L253
$00E98A     F0 FE                       beq     L253            ; error, ->
$00E98C                 L254
$00E98C     30 FE                       bmi     L254            ; error, ->
$00E98E     C9 7F                       cmp     #$7F
$00E990                 L255
$00E990     D0 FE                       bne     L255            ; error, ->
$00E992     A9 65                       lda     #$65
$00E994     85 03                       sta     Test
$00E996     18                          clc
$00E997     A9 80                       lda     #$80
$00E999     65 10                       adc     TmpZP0
$00E99B                 L251a
$00E99B     90 FE                       bcc     L251a           ; error, ->
$00E99D                 L252a
$00E99D     50 FE                       bvc     L252a           ; error, ->
$00E99F                 L253a
$00E99F     F0 FE                       beq     L253a           ; error, ->
$00E9A1                 L254a
$00E9A1     30 FE                       bmi     L254a           ; error, ->
$00E9A3     C9 7F                       cmp     #$7F
$00E9A5                 L255a
$00E9A5     D0 FE                       bne     L255a           ; error, ->
$00E9A7     A9 66                       lda     #$66
$00E9A9     85 03                       sta     Test
$00E9AB     18                          clc
$00E9AC     A9 80                       lda     #$80
$00E9AE     6D 00 10                    adc     TmpAB0
$00E9B1                 L251b
$00E9B1     90 FE                       bcc     L251b           ; error, ->
$00E9B3                 L252b
$00E9B3     50 FE                       bvc     L252b           ; error, ->
$00E9B5                 L253b
$00E9B5     F0 FE                       beq     L253b           ; error, ->
$00E9B7                 L254b
$00E9B7     30 FE                       bmi     L254b           ; error, ->
$00E9B9     C9 7F                       cmp     #$7F
$00E9BB                 L255b
$00E9BB     D0 FE                       bne     L255b           ; error, ->
$00E9BD     A9 67                       lda     #$67
$00E9BF     85 03                       sta     Test
$00E9C1     A2 80                       ldx     #$80
$00E9C3     A9 FF                       lda     #$FF
$00E9C5     95 30                       sta     $30,X
$00E9C7     18                          clc
$00E9C8     A9 80                       lda     #$80
$00E9CA     75 30                       adc     $30,X
$00E9CC                 L251c
$00E9CC     90 FE                       bcc     L251c           ; error, ->
$00E9CE                 L252c
$00E9CE     50 FE                       bvc     L252c           ; error, ->
$00E9D0                 L253c
$00E9D0     F0 FE                       beq     L253c           ; error, ->
$00E9D2                 L254c
$00E9D2     30 FE                       bmi     L254c           ; error, ->
$00E9D4     C9 7F                       cmp     #$7F
$00E9D6                 L255c
$00E9D6     D0 FE                       bne     L255c           ; error, ->
$00E9D8     A9 68                       lda     #$68
$00E9DA     85 03                       sta     Test
$00E9DC     A9 FF                       lda     #$FF
$00E9DE     9D 00 10                    sta     TmpAB0,X
$00E9E1     18                          clc
$00E9E2     A9 80                       lda     #$80
$00E9E4     7D 00 10                    adc     TmpAB0,X
$00E9E7                 L251d
$00E9E7     90 FE                       bcc     L251d           ; error, ->
$00E9E9                 L252d
$00E9E9     50 FE                       bvc     L252d           ; error, ->
$00E9EB                 L253d
$00E9EB     F0 FE                       beq     L253d           ; error, ->
$00E9ED                 L254d
$00E9ED     30 FE                       bmi     L254d           ; error, ->
$00E9EF     C9 7F                       cmp     #$7F
$00E9F1                 L255d
$00E9F1     D0 FE                       bne     L255d           ; error, ->
$00E9F3     A9 69                       lda     #$69
$00E9F5     85 03                       sta     Test
$00E9F7     A0 80                       ldy     #$80
$00E9F9     A9 FF                       lda     #$FF
$00E9FB     99 00 10                    sta     TmpAB0,Y
$00E9FE     18                          clc
$00E9FF     A9 80                       lda     #$80
$00EA01     79 00 10                    adc     TmpAB0,Y
$00EA04                 L251e
$00EA04     90 FE                       bcc     L251e           ; error, ->
$00EA06                 L252e
$00EA06     50 FE                       bvc     L252e           ; error, ->
$00EA08                 L253e
$00EA08     F0 FE                       beq     L253e           ; error, ->
$00EA0A                 L254e
$00EA0A     30 FE                       bmi     L254e           ; error, ->
$00EA0C     C9 7F                       cmp     #$7F
$00EA0E                 L255e
$00EA0E     D0 FE                       bne     L255e           ; error, ->
$00EA10     A9 6A                       lda     #$6A
$00EA12     85 03                       sta     Test
$00EA14     A9 10                       lda     #$10
$00EA16     85 51                       sta     $51
$00EA18     85 21                       sta     $21
$00EA1A     A9 AA                       lda     #$AA
$00EA1C     85 50                       sta     $50
$00EA1E     85 20                       sta     $20
$00EA20     A9 FF                       lda     #$FF
$00EA22     81 20                       sta     ($20,X)
$00EA24     18                          clc
$00EA25     A9 80                       lda     #$80
$00EA27     61 20                       adc     ($20,X)
$00EA29                 L251f
$00EA29     90 FE                       bcc     L251f           ; error, ->
$00EA2B                 L252f
$00EA2B     50 FE                       bvc     L252f           ; error, ->
$00EA2D                 L253f
$00EA2D     F0 FE                       beq     L253f           ; error, ->
$00EA2F                 L254f
$00EA2F     30 FE                       bmi     L254f           ; error, ->
$00EA31     C9 7F                       cmp     #$7F
$00EA33                 L255f
$00EA33     D0 FE                       bne     L255f           ; error, ->
$00EA35     A9 6B                       lda     #$6B
$00EA37     85 03                       sta     Test
$00EA39     A9 FF                       lda     #$FF
$00EA3B     81 F0                       sta     ($F0,X)
$00EA3D     18                          clc
$00EA3E     A9 80                       lda     #$80
$00EA40     61 F0                       adc     ($F0,X)
$00EA42                 L251g
$00EA42     90 FE                       bcc     L251g           ; error, ->
$00EA44                 L252g
$00EA44     50 FE                       bvc     L252g           ; error, ->
$00EA46                 L253g
$00EA46     F0 FE                       beq     L253g           ; error, ->
$00EA48                 L254g
$00EA48     30 FE                       bmi     L254g           ; error, ->
$00EA4A     C9 7F                       cmp     #$7F
$00EA4C                 L255g
$00EA4C     D0 FE                       bne     L255g           ; error, ->
$00EA4E                 ;**  SBC  (1)
$00EA4E                 ;  SEC          ; $30 - $30 = $00, returns C = 1, returns V = 0
$00EA4E                 ;  LDA #$30
$00EA4E                 ;  SBC #$30
$00EA4E     A9 6C                       lda     #$6C
$00EA50     85 03                       sta     Test
$00EA52     A9 30                       lda     #$30
$00EA54     85 10                       sta     TmpZP0
$00EA56     8D 00 10                    sta     TmpAB0
$00EA59     38                          sec
$00EA5A     E9 30                       sbc     #$30
$00EA5C                 L261
$00EA5C     90 FE                       bcc     L261            ; error, ->
$00EA5E                 L262
$00EA5E     70 FE                       bvs     L262            ; error, ->
$00EA60                 L263
$00EA60     D0 FE                       bne     L263            ; error, ->
$00EA62                 L264
$00EA62     30 FE                       bmi     L264            ; error, ->
$00EA64     C9 00                       cmp     #0
$00EA66                 L265
$00EA66     D0 FE                       bne     L265            ; error, ->
$00EA68     A9 6D                       lda     #$6D
$00EA6A     85 03                       sta     Test
$00EA6C     38                          sec
$00EA6D     A9 30                       lda     #$30
$00EA6F     E5 10                       sbc     TmpZP0
$00EA71                 L261a
$00EA71     90 FE                       bcc     L261a           ; error, ->
$00EA73                 L262a
$00EA73     70 FE                       bvs     L262a           ; error, ->
$00EA75                 L263a
$00EA75     D0 FE                       bne     L263a           ; error, ->
$00EA77                 L264a
$00EA77     30 FE                       bmi     L264a           ; error, ->
$00EA79     C9 00                       cmp     #0
$00EA7B                 L265a
$00EA7B     D0 FE                       bne     L265a           ; error, ->
$00EA7D     A9 6E                       lda     #$6E
$00EA7F     85 03                       sta     Test
$00EA81     38                          sec
$00EA82     A9 30                       lda     #$30
$00EA84     ED 00 10                    sbc     TmpAB0
$00EA87                 L261b
$00EA87     90 FE                       bcc     L261b           ; error, ->
$00EA89                 L262b
$00EA89     70 FE                       bvs     L262b           ; error, ->
$00EA8B                 L263b
$00EA8B     D0 FE                       bne     L263b           ; error, ->
$00EA8D                 L264b
$00EA8D     30 FE                       bmi     L264b           ; error, ->
$00EA8F     C9 00                       cmp     #0
$00EA91                 L265b
$00EA91     D0 FE                       bne     L265b           ; error, ->
$00EA93     A9 6F                       lda     #$6F
$00EA95     85 03                       sta     Test
$00EA97     A9 30                       lda     #$30
$00EA99     AA                          tax
$00EA9A     95 30                       sta     $30,X
$00EA9C     38                          sec
$00EA9D     F5 30                       sbc     $30,X
$00EA9F                 L261c
$00EA9F     90 FE                       bcc     L261c           ; error, ->
$00EAA1                 L262c
$00EAA1     70 FE                       bvs     L262c           ; error, ->
$00EAA3                 L263c
$00EAA3     D0 FE                       bne     L263c           ; error, ->
$00EAA5                 L264c
$00EAA5     30 FE                       bmi     L264c           ; error, ->
$00EAA7     C9 00                       cmp     #0
$00EAA9                 L265c
$00EAA9     D0 FE                       bne     L265c           ; error, ->
$00EAAB     A9 70                       lda     #$70
$00EAAD     85 03                       sta     Test
$00EAAF     A9 30                       lda     #$30
$00EAB1     9D 00 10                    sta     TmpAB0,X
$00EAB4     38                          sec
$00EAB5     FD 00 10                    sbc     TmpAB0,X
$00EAB8                 L261d
$00EAB8     90 FE                       bcc     L261d           ; error, ->
$00EABA                 L262d
$00EABA     70 FE                       bvs     L262d           ; error, ->
$00EABC                 L263d
$00EABC     D0 FE                       bne     L263d           ; error, ->
$00EABE                 L264d
$00EABE     30 FE                       bmi     L264d           ; error, ->
$00EAC0     C9 00                       cmp     #0
$00EAC2                 L265d
$00EAC2     D0 FE                       bne     L265d           ; error, ->
$00EAC4     A9 71                       lda     #$71
$00EAC6     85 03                       sta     Test
$00EAC8     A9 30                       lda     #$30
$00EACA     A8                          tay
$00EACB     99 00 10                    sta     TmpAB0,Y
$00EACE     38                          sec
$00EACF     F9 00 10                    sbc     TmpAB0,Y
$00EAD2                 L261e
$00EAD2     90 FE                       bcc     L261e           ; error, ->
$00EAD4                 L262e
$00EAD4     70 FE                       bvs     L262e           ; error, ->
$00EAD6                 L263e
$00EAD6     D0 FE                       bne     L263e           ; error, ->
$00EAD8                 L264e
$00EAD8     30 FE                       bmi     L264e           ; error, ->
$00EADA     C9 00                       cmp     #0
$00EADC                 L265e
$00EADC     D0 FE                       bne     L265e           ; error, ->
$00EADE     A9 72                       lda     #$72
$00EAE0     85 03                       sta     Test
$00EAE2     A9 10                       lda     #$10
$00EAE4     85 51                       sta     $51
$00EAE6     85 21                       sta     $21
$00EAE8     A9 AA                       lda     #$AA
$00EAEA     85 50                       sta     $50
$00EAEC     85 20                       sta     $20
$00EAEE     A2 30                       ldx     #$30
$00EAF0     8A                          txa
$00EAF1     81 20                       sta     ($20,X)
$00EAF3     38                          sec
$00EAF4     E1 20                       sbc     ($20,X)
$00EAF6                 L261f
$00EAF6     90 FE                       bcc     L261f           ; error, ->
$00EAF8                 L262f
$00EAF8     70 FE                       bvs     L262f           ; error, ->
$00EAFA                 L263f
$00EAFA     D0 FE                       bne     L263f           ; error, ->
$00EAFC                 L264f
$00EAFC     30 FE                       bmi     L264f           ; error, ->
$00EAFE     C9 00                       cmp     #0
$00EB00                 L265f
$00EB00     D0 FE                       bne     L265f           ; error, ->
$00EB02     A9 73                       lda     #$73
$00EB04     85 03                       sta     Test
$00EB06     A9 30                       lda     #$30
$00EB08     81 F0                       sta     ($F0,X)
$00EB0A     38                          sec
$00EB0B     E1 F0                       sbc     ($F0,X)
$00EB0D                 L261g
$00EB0D     90 FE                       bcc     L261g           ; error, ->
$00EB0F                 L262g
$00EB0F     70 FE                       bvs     L262g           ; error, ->
$00EB11                 L263g
$00EB11     D0 FE                       bne     L263g           ; error, ->
$00EB13                 L264g
$00EB13     30 FE                       bmi     L264g           ; error, ->
$00EB15     C9 00                       cmp     #0
$00EB17                 L265g
$00EB17     D0 FE                       bne     L265g           ; error, ->
$00EB19                 ;  SEC          ; $30 - $50 = $20, returns C = 0, returns V = 0
$00EB19                 ;  LDA #$30
$00EB19                 ;  SBC #$50
$00EB19     A9 74                       lda     #$74
$00EB1B     85 03                       sta     Test
$00EB1D     A9 50                       lda     #$50
$00EB1F     85 10                       sta     TmpZP0
$00EB21     8D 00 10                    sta     TmpAB0
$00EB24     38                          sec
$00EB25     A9 30                       lda     #$30
$00EB27     E9 50                       sbc     #$50
$00EB29                 L271
$00EB29     B0 FE                       bcs     L271            ; error, ->
$00EB2B                 L272
$00EB2B     70 FE                       bvs     L272            ; error, ->
$00EB2D                 L273
$00EB2D     F0 FE                       beq     L273            ; error, ->
$00EB2F                 L274
$00EB2F     10 FE                       bpl     L274            ; error, ->
$00EB31     C9 E0                       cmp     #$E0
$00EB33                 L275
$00EB33     D0 FE                       bne     L275            ; error, ->
$00EB35     A9 75                       lda     #$75
$00EB37     85 03                       sta     Test
$00EB39     38                          sec
$00EB3A     A9 30                       lda     #$30
$00EB3C     E5 10                       sbc     TmpZP0
$00EB3E                 L271a
$00EB3E     B0 FE                       bcs     L271a           ; error, ->
$00EB40                 L272a
$00EB40     70 FE                       bvs     L272a           ; error, ->
$00EB42                 L273a
$00EB42     F0 FE                       beq     L273a           ; error, ->
$00EB44                 L274a
$00EB44     10 FE                       bpl     L274a           ; error, ->
$00EB46     C9 E0                       cmp     #$E0
$00EB48                 L275a
$00EB48     D0 FE                       bne     L275a           ; error, ->
$00EB4A     A9 76                       lda     #$76
$00EB4C     85 03                       sta     Test
$00EB4E     38                          sec
$00EB4F     A9 30                       lda     #$30
$00EB51     ED 00 10                    sbc     TmpAB0
$00EB54                 L271b
$00EB54     B0 FE                       bcs     L271b           ; error, ->
$00EB56                 L272b
$00EB56     70 FE                       bvs     L272b           ; error, ->
$00EB58                 L273b
$00EB58     F0 FE                       beq     L273b           ; error, ->
$00EB5A                 L274b
$00EB5A     10 FE                       bpl     L274b           ; error, ->
$00EB5C     C9 E0                       cmp     #$E0
$00EB5E                 L275b
$00EB5E     D0 FE                       bne     L275b           ; error, ->
$00EB60     A9 77                       lda     #$77
$00EB62     85 03                       sta     Test
$00EB64     A2 30                       ldx     #$30
$00EB66     A9 50                       lda     #$50
$00EB68     95 30                       sta     $30,X
$00EB6A     38                          sec
$00EB6B     A9 30                       lda     #$30
$00EB6D     F5 30                       sbc     $30,X
$00EB6F                 L271c
$00EB6F     B0 FE                       bcs     L271c           ; error, ->
$00EB71                 L272c
$00EB71     70 FE                       bvs     L272c           ; error, ->
$00EB73                 L273c
$00EB73     F0 FE                       beq     L273c           ; error, ->
$00EB75                 L274c
$00EB75     10 FE                       bpl     L274c           ; error, ->
$00EB77     C9 E0                       cmp     #$E0
$00EB79                 L275c
$00EB79     D0 FE                       bne     L275c           ; error, ->
$00EB7B     A9 78                       lda     #$78
$00EB7D     85 03                       sta     Test
$00EB7F     A9 50                       lda     #$50
$00EB81     9D 00 10                    sta     TmpAB0,X
$00EB84     38                          sec
$00EB85     A9 30                       lda     #$30
$00EB87     FD 00 10                    sbc     TmpAB0,X
$00EB8A                 L271d
$00EB8A     B0 FE                       bcs     L271d           ; error, ->
$00EB8C                 L272d
$00EB8C     70 FE                       bvs     L272d           ; error, ->
$00EB8E                 L273d
$00EB8E     F0 FE                       beq     L273d           ; error, ->
$00EB90                 L274d
$00EB90     10 FE                       bpl     L274d           ; error, ->
$00EB92     C9 E0                       cmp     #$E0
$00EB94                 L275d
$00EB94     D0 FE                       bne     L275d           ; error, ->
$00EB96     A9 79                       lda     #$79
$00EB98     85 03                       sta     Test
$00EB9A     A0 30                       ldy     #$30
$00EB9C     A9 50                       lda     #$50
$00EB9E     99 00 10                    sta     TmpAB0,Y
$00EBA1     38                          sec
$00EBA2     A9 30                       lda     #$30
$00EBA4     F9 00 10                    sbc     TmpAB0,Y
$00EBA7                 L271e
$00EBA7     B0 FE                       bcs     L271e           ; error, ->
$00EBA9                 L272e
$00EBA9     70 FE                       bvs     L272e           ; error, ->
$00EBAB                 L273e
$00EBAB     F0 FE                       beq     L273e           ; error, ->
$00EBAD                 L274e
$00EBAD     10 FE                       bpl     L274e           ; error, ->
$00EBAF     C9 E0                       cmp     #$E0
$00EBB1                 L275e
$00EBB1     D0 FE                       bne     L275e           ; error, ->
$00EBB3     A9 7A                       lda     #$7A
$00EBB5     85 03                       sta     Test
$00EBB7     A9 10                       lda     #$10
$00EBB9     85 51                       sta     $51
$00EBBB     85 21                       sta     $21
$00EBBD     A9 AA                       lda     #$AA
$00EBBF     85 50                       sta     $50
$00EBC1     85 20                       sta     $20
$00EBC3     A9 50                       lda     #$50
$00EBC5     81 20                       sta     ($20,X)
$00EBC7     38                          sec
$00EBC8     A9 30                       lda     #$30
$00EBCA     E1 20                       sbc     ($20,X)
$00EBCC                 L271f
$00EBCC     B0 FE                       bcs     L271f           ; error, ->
$00EBCE                 L272f
$00EBCE     70 FE                       bvs     L272f           ; error, ->
$00EBD0                 L273f
$00EBD0     F0 FE                       beq     L273f           ; error, ->
$00EBD2                 L274f
$00EBD2     10 FE                       bpl     L274f           ; error, ->
$00EBD4     C9 E0                       cmp     #$E0
$00EBD6                 L275f
$00EBD6     D0 FE                       bne     L275f           ; error, ->
$00EBD8     A9 7B                       lda     #$7B
$00EBDA     85 03                       sta     Test
$00EBDC     A9 50                       lda     #$50
$00EBDE     81 F0                       sta     ($F0,X)
$00EBE0     38                          sec
$00EBE1     A9 30                       lda     #$30
$00EBE3     E1 F0                       sbc     ($F0,X)
$00EBE5                 L271g
$00EBE5     B0 FE                       bcs     L271g           ; error, ->
$00EBE7                 L272g
$00EBE7     70 FE                       bvs     L272g           ; error, ->
$00EBE9                 L273g
$00EBE9     F0 FE                       beq     L273g           ; error, ->
$00EBEB                 L274g
$00EBEB     10 FE                       bpl     L274g           ; error, ->
$00EBED     C9 E0                       cmp     #$E0
$00EBEF                 L275g
$00EBEF     D0 FE                       bne     L275g           ; error, ->
$00EBF1                 ;  SEC          ; $80 - $01 = $7F, returns C = 1, returns V = 1
$00EBF1                 ;  LDA #$80
$00EBF1                 ;  SBC #$01
$00EBF1     A9 7C                       lda     #$7C
$00EBF3     85 03                       sta     Test
$00EBF5     A9 01                       lda     #1
$00EBF7     85 10                       sta     TmpZP0
$00EBF9     8D 00 10                    sta     TmpAB0
$00EBFC     38                          sec
$00EBFD     A9 80                       lda     #$80
$00EBFF     E9 01                       sbc     #1
$00EC01                 L281
$00EC01     90 FE                       bcc     L281            ; error, ->
$00EC03                 L282
$00EC03     50 FE                       bvc     L282            ; error, ->
$00EC05                 L283
$00EC05     F0 FE                       beq     L283            ; error, ->
$00EC07                 L284
$00EC07     30 FE                       bmi     L284            ; error, ->
$00EC09     C9 7F                       cmp     #$7F
$00EC0B                 L285
$00EC0B     D0 FE                       bne     L285            ; error, ->
$00EC0D     A9 7D                       lda     #$7D
$00EC0F     85 03                       sta     Test
$00EC11     38                          sec
$00EC12     A9 80                       lda     #$80
$00EC14     E5 10                       sbc     TmpZP0
$00EC16                 L281a
$00EC16     90 FE                       bcc     L281a           ; error, ->
$00EC18                 L282a
$00EC18     50 FE                       bvc     L282a           ; error, ->
$00EC1A                 L283a
$00EC1A     F0 FE                       beq     L283a           ; error, ->
$00EC1C                 L284a
$00EC1C     30 FE                       bmi     L284a           ; error, ->
$00EC1E     C9 7F                       cmp     #$7F
$00EC20                 L285a
$00EC20     D0 FE                       bne     L285a           ; error, ->
$00EC22     A9 7E                       lda     #$7E
$00EC24     85 03                       sta     Test
$00EC26     38                          sec
$00EC27     A9 80                       lda     #$80
$00EC29     ED 00 10                    sbc     TmpAB0
$00EC2C                 L281b
$00EC2C     90 FE                       bcc     L281b           ; error, ->
$00EC2E                 L282b
$00EC2E     50 FE                       bvc     L282b           ; error, ->
$00EC30                 L283b
$00EC30     F0 FE                       beq     L283b           ; error, ->
$00EC32                 L284b
$00EC32     30 FE                       bmi     L284b           ; error, ->
$00EC34     C9 7F                       cmp     #$7F
$00EC36                 L285b
$00EC36     D0 FE                       bne     L285b           ; error, ->
$00EC38     A9 7F                       lda     #$7F
$00EC3A     85 03                       sta     Test
$00EC3C     A2 30                       ldx     #$30
$00EC3E     A9 01                       lda     #1
$00EC40     95 30                       sta     $30,X
$00EC42     38                          sec
$00EC43     A9 80                       lda     #$80
$00EC45     F5 30                       sbc     $30,X
$00EC47                 L281c
$00EC47     90 FE                       bcc     L281c           ; error, ->
$00EC49                 L282c
$00EC49     50 FE                       bvc     L282c           ; error, ->
$00EC4B                 L283c
$00EC4B     F0 FE                       beq     L283c           ; error, ->
$00EC4D                 L284c
$00EC4D     30 FE                       bmi     L284c           ; error, ->
$00EC4F     C9 7F                       cmp     #$7F
$00EC51                 L285c
$00EC51     D0 FE                       bne     L285c           ; error, ->
$00EC53     A9 80                       lda     #$80
$00EC55     85 03                       sta     Test
$00EC57     A9 01                       lda     #1
$00EC59     9D 00 10                    sta     TmpAB0,X
$00EC5C     38                          sec
$00EC5D     A9 80                       lda     #$80
$00EC5F     FD 00 10                    sbc     TmpAB0,X
$00EC62                 L281d
$00EC62     90 FE                       bcc     L281d           ; error, ->
$00EC64                 L282d
$00EC64     50 FE                       bvc     L282d           ; error, ->
$00EC66                 L283d
$00EC66     F0 FE                       beq     L283d           ; error, ->
$00EC68                 L284d
$00EC68     30 FE                       bmi     L284d           ; error, ->
$00EC6A     C9 7F                       cmp     #$7F
$00EC6C                 L285d
$00EC6C     D0 FE                       bne     L285d           ; error, ->
$00EC6E     A9 81                       lda     #$81
$00EC70     85 03                       sta     Test
$00EC72     A0 30                       ldy     #$30
$00EC74     A9 01                       lda     #1
$00EC76     99 00 10                    sta     TmpAB0,Y
$00EC79     38                          sec
$00EC7A     A9 80                       lda     #$80
$00EC7C     F9 00 10                    sbc     TmpAB0,Y
$00EC7F                 L281e
$00EC7F     90 FE                       bcc     L281e           ; error, ->
$00EC81                 L282e
$00EC81     50 FE                       bvc     L282e           ; error, ->
$00EC83                 L283e
$00EC83     F0 FE                       beq     L283e           ; error, ->
$00EC85                 L284e
$00EC85     30 FE                       bmi     L284e           ; error, ->
$00EC87     C9 7F                       cmp     #$7F
$00EC89                 L285e
$00EC89     D0 FE                       bne     L285e           ; error, ->
$00EC8B     A9 82                       lda     #$82
$00EC8D     85 03                       sta     Test
$00EC8F     A9 10                       lda     #$10
$00EC91     85 51                       sta     $51
$00EC93     85 21                       sta     $21
$00EC95     A9 AA                       lda     #$AA
$00EC97     85 50                       sta     $50
$00EC99     85 20                       sta     $20
$00EC9B     A9 01                       lda     #1
$00EC9D     81 20                       sta     ($20,X)
$00EC9F     38                          sec
$00ECA0     A9 80                       lda     #$80
$00ECA2     E1 20                       sbc     ($20,X)
$00ECA4                 L281f
$00ECA4     90 FE                       bcc     L281f           ; error, ->
$00ECA6                 L282f
$00ECA6     50 FE                       bvc     L282f           ; error, ->
$00ECA8                 L283f
$00ECA8     F0 FE                       beq     L283f           ; error, ->
$00ECAA                 L284f
$00ECAA     30 FE                       bmi     L284f           ; error, ->
$00ECAC     C9 7F                       cmp     #$7F
$00ECAE                 L285f
$00ECAE     D0 FE                       bne     L285f           ; error, ->
$00ECB0     A9 83                       lda     #$83
$00ECB2     85 03                       sta     Test
$00ECB4     A9 01                       lda     #1
$00ECB6     81 F0                       sta     ($F0,X)
$00ECB8     38                          sec
$00ECB9     A9 80                       lda     #$80
$00ECBB     E1 F0                       sbc     ($F0,X)
$00ECBD                 L281g
$00ECBD     90 FE                       bcc     L281g           ; error, ->
$00ECBF                 L282g
$00ECBF     50 FE                       bvc     L282g           ; error, ->
$00ECC1                 L283g
$00ECC1     F0 FE                       beq     L283g           ; error, ->
$00ECC3                 L284g
$00ECC3     30 FE                       bmi     L284g           ; error, ->
$00ECC5     C9 7F                       cmp     #$7F
$00ECC7                 L285g
$00ECC7     D0 FE                       bne     L285g           ; error, ->
$00ECC9                 ;  SEC          ; $70 - $E0 = $90, returns C = 0, returns V = 1
$00ECC9                 ;  LDA #$70
$00ECC9                 ;  SBC #$E0
$00ECC9     A9 84                       lda     #$84
$00ECCB     85 03                       sta     Test
$00ECCD     A9 E0                       lda     #$E0
$00ECCF     85 10                       sta     TmpZP0
$00ECD1     8D 00 10                    sta     TmpAB0
$00ECD4     38                          sec
$00ECD5     A9 70                       lda     #$70
$00ECD7     E9 E0                       sbc     #$E0
$00ECD9                 L291
$00ECD9     B0 FE                       bcs     L291            ; error, ->
$00ECDB                 L292
$00ECDB     50 FE                       bvc     L292            ; error, ->
$00ECDD                 L293
$00ECDD     F0 FE                       beq     L293            ; error, ->
$00ECDF                 L294
$00ECDF     10 FE                       bpl     L294            ; error, ->
$00ECE1     C9 90                       cmp     #$90
$00ECE3                 L295
$00ECE3     D0 FE                       bne     L295            ; error, ->
$00ECE5     A9 85                       lda     #$85
$00ECE7     85 03                       sta     Test
$00ECE9     38                          sec
$00ECEA     A9 70                       lda     #$70
$00ECEC     E5 10                       sbc     TmpZP0
$00ECEE                 L291a
$00ECEE     B0 FE                       bcs     L291a           ; error, ->
$00ECF0                 L292a
$00ECF0     50 FE                       bvc     L292a           ; error, ->
$00ECF2                 L293a
$00ECF2     F0 FE                       beq     L293a           ; error, ->
$00ECF4                 L294a
$00ECF4     10 FE                       bpl     L294a           ; error, ->
$00ECF6     C9 90                       cmp     #$90
$00ECF8                 L295a
$00ECF8     D0 FE                       bne     L295a           ; error, ->
$00ECFA     A9 86                       lda     #$86
$00ECFC     85 03                       sta     Test
$00ECFE     38                          sec
$00ECFF     A9 70                       lda     #$70
$00ED01     ED 00 10                    sbc     TmpAB0
$00ED04                 L291b
$00ED04     B0 FE                       bcs     L291b           ; error, ->
$00ED06                 L292b
$00ED06     50 FE                       bvc     L292b           ; error, ->
$00ED08                 L293b
$00ED08     F0 FE                       beq     L293b           ; error, ->
$00ED0A                 L294b
$00ED0A     10 FE                       bpl     L294b           ; error, ->
$00ED0C     C9 90                       cmp     #$90
$00ED0E                 L295b
$00ED0E     D0 FE                       bne     L295b           ; error, ->
$00ED10     A9 87                       lda     #$87
$00ED12     85 03                       sta     Test
$00ED14     A2 70                       ldx     #$70
$00ED16     A9 E0                       lda     #$E0
$00ED18     95 30                       sta     $30,X
$00ED1A     38                          sec
$00ED1B     A9 70                       lda     #$70
$00ED1D     F5 30                       sbc     $30,X
$00ED1F                 L291c
$00ED1F     B0 FE                       bcs     L291c           ; error, ->
$00ED21                 L292c
$00ED21     50 FE                       bvc     L292c           ; error, ->
$00ED23                 L293c
$00ED23     F0 FE                       beq     L293c           ; error, ->
$00ED25                 L294c
$00ED25     10 FE                       bpl     L294c           ; error, ->
$00ED27     C9 90                       cmp     #$90
$00ED29                 L295c
$00ED29     D0 FE                       bne     L295c           ; error, ->
$00ED2B     A9 88                       lda     #$88
$00ED2D     85 03                       sta     Test
$00ED2F     A9 E0                       lda     #$E0
$00ED31     9D 00 10                    sta     TmpAB0,X
$00ED34     38                          sec
$00ED35     A9 70                       lda     #$70
$00ED37     FD 00 10                    sbc     TmpAB0,X
$00ED3A                 L291d
$00ED3A     B0 FE                       bcs     L291d           ; error, ->
$00ED3C                 L292d
$00ED3C     50 FE                       bvc     L292d           ; error, ->
$00ED3E                 L293d
$00ED3E     F0 FE                       beq     L293d           ; error, ->
$00ED40                 L294d
$00ED40     10 FE                       bpl     L294d           ; error, ->
$00ED42     C9 90                       cmp     #$90
$00ED44                 L295d
$00ED44     D0 FE                       bne     L295d           ; error, ->
$00ED46     A9 89                       lda     #$89
$00ED48     85 03                       sta     Test
$00ED4A     A0 70                       ldy     #$70
$00ED4C     A9 E0                       lda     #$E0
$00ED4E     99 00 10                    sta     TmpAB0,Y
$00ED51     38                          sec
$00ED52     A9 70                       lda     #$70
$00ED54     F9 00 10                    sbc     TmpAB0,Y
$00ED57                 L291e
$00ED57     B0 FE                       bcs     L291e           ; error, ->
$00ED59                 L292e
$00ED59     50 FE                       bvc     L292e           ; error, ->
$00ED5B                 L293e
$00ED5B     F0 FE                       beq     L293e           ; error, ->
$00ED5D                 L294e
$00ED5D     10 FE                       bpl     L294e           ; error, ->
$00ED5F     C9 90                       cmp     #$90
$00ED61                 L295e
$00ED61     D0 FE                       bne     L295e           ; error, ->
$00ED63     A9 8A                       lda     #$8A
$00ED65     85 03                       sta     Test
$00ED67     A9 10                       lda     #$10
$00ED69     85 51                       sta     $51
$00ED6B     85 21                       sta     $21
$00ED6D     A9 AA                       lda     #$AA
$00ED6F     85 50                       sta     $50
$00ED71     85 20                       sta     $20
$00ED73     A9 E0                       lda     #$E0
$00ED75     81 20                       sta     ($20,X)
$00ED77     38                          sec
$00ED78     A9 70                       lda     #$70
$00ED7A     E1 20                       sbc     ($20,X)
$00ED7C                 L291f
$00ED7C     B0 FE                       bcs     L291f           ; error, ->
$00ED7E                 L292f
$00ED7E     50 FE                       bvc     L292f           ; error, ->
$00ED80                 L293f
$00ED80     F0 FE                       beq     L293f           ; error, ->
$00ED82                 L294f
$00ED82     10 FE                       bpl     L294f           ; error, ->
$00ED84     C9 90                       cmp     #$90
$00ED86                 L295f
$00ED86     D0 FE                       bne     L295f           ; error, ->
$00ED88     A9 8B                       lda     #$8B
$00ED8A     85 03                       sta     Test
$00ED8C     A9 E0                       lda     #$E0
$00ED8E     81 F0                       sta     ($F0,X)
$00ED90     38                          sec
$00ED91     A9 70                       lda     #$70
$00ED93     E1 F0                       sbc     ($F0,X)
$00ED95                 L291g
$00ED95     B0 FE                       bcs     L291g           ; error, ->
$00ED97                 L292g
$00ED97     50 FE                       bvc     L292g           ; error, ->
$00ED99                 L293g
$00ED99     F0 FE                       beq     L293g           ; error, ->
$00ED9B                 L294g
$00ED9B     10 FE                       bpl     L294g           ; error, ->
$00ED9D     C9 90                       cmp     #$90
$00ED9F                 L295g
$00ED9F     D0 FE                       bne     L295g           ; error, ->
$00EDA1                 ;**  ADC  (2)                   Test ADC in combination with SEC
$00EDA1     A9 8C                       lda     #$8C
$00EDA3     85 03                       sta     Test
$00EDA5     38                          sec
$00EDA6     A9 01                       lda     #1
$00EDA8     69 04                       adc     #4
$00EDAA                 L301
$00EDAA     B0 FE                       bcs     L301            ; Carry must have been cleared
$00EDAC     C9 06                       cmp     #6
$00EDAE                 L302
$00EDAE     D0 FE                       bne     L302
$00EDB0     A9 8D                       lda     #$8D
$00EDB2     85 03                       sta     Test
$00EDB4     38                          sec
$00EDB5     A9 7F                       lda     #$7F
$00EDB7     69 80                       adc     #$80
$00EDB9                 L303
$00EDB9     D0 FE                       bne     L303
$00EDBB                 L304
$00EDBB     90 F1                       bcc     L302            ; Carry still must be set
$00EDBD                 ;**  SBC  (2)                   Test SBC in combination with CLC
$00EDBD     A9 8E                       lda     #$8E
$00EDBF     85 03                       sta     Test
$00EDC1     18                          clc
$00EDC2     A9 06                       lda     #6
$00EDC4     E9 04                       sbc     #4
$00EDC6                 L311
$00EDC6     90 FE                       bcc     L311            ; Carry must have been set
$00EDC8     C9 01                       cmp     #1
$00EDCA                 L312
$00EDCA     D0 FE                       bne     L312
$00EDCC     A9 8F                       lda     #$8F
$00EDCE     85 03                       sta     Test
$00EDD0     38                          sec
$00EDD1     A9 7F                       lda     #$7F
$00EDD3     69 7F                       adc     #$7F
$00EDD5                 L313
$00EDD5     B0 FE                       bcs     L313            ; Carry still must be cleared
$00EDD7     C9 FF                       cmp     #$FF
$00EDD9                 L314
$00EDD9     D0 FE                       bne     L314
$00EDDB     A9 9F                       lda     #$9F
$00EDDD     85 03                       sta     Test
$00EDDF     38                          sec
$00EDE0     A9 7F                       lda     #$7F
$00EDE2     69 80                       adc     #$80
$00EDE4                 L315
$00EDE4     90 EF                       bcc     L313            ; Carry still must be set
$00EDE6                 L316
$00EDE6     D0 FE                       bne     L316
$00EDE8                 ;**  AND
$00EDE8     A9 A0                       lda     #$A0
$00EDEA     85 03                       sta     Test
$00EDEC     A2 05                       ldx     #5
$00EDEE     A0 09                       ldy     #9
$00EDF0     A9 10                       lda     #$10
$00EDF2     85 15                       sta     TmpZP0+5
$00EDF4     85 16                       sta     TmpZP0+6
$00EDF6     A9 00                       lda     #0
$00EDF8     85 14                       sta     TmpZP0+4
$00EDFA     8D 10 10                    sta     TmpAB0+$10
$00EDFD     8D 09 10                    sta     TmpAB0+9
$00EE00     A9 AA                       lda     #$AA
$00EE02     81 10                       sta     (TmpZP0,X)              ; = ($15) = $1010
$00EE04     91 14                       sta     (TmpZP0+4),Y            ; = $1000 + 9
$00EE06     CD 10 10                    cmp     TmpAB0+$10
$00EE09                 L320a
$00EE09     D0 FE                       bne     L320a
$00EE0B     CD 09 10                    cmp     TmpAB0+9
$00EE0E     D0 FE       L320b           bne     L320b
$00EE10                 ;* A = $FF, memory = 0
$00EE10     A9 A1                       lda     #$A1
$00EE12     85 03                       sta     Test
$00EE14     A9 00                       lda     #0
$00EE16     85 10                       sta     TmpZP0
$00EE18     8D 00 10                    sta     TmpAB0
$00EE1B     95 10                       sta     TmpZP0,X
$00EE1D     9D 00 10                    sta     TmpAB0,X
$00EE20     99 00 10                    sta     TmpAB0,Y
$00EE23     81 10                       sta     (TmpZP0,X)
$00EE25     91 14                       sta     (TmpZP0+4),Y
$00EE27     A9 FF                       lda     #$FF
$00EE29     29 00                       and     #$0
$00EE2B                 L321
$00EE2B     D0 FE                       bne     L321            ; error, ->
$00EE2D                 L322
$00EE2D     30 FE                       bmi     L322            ; error, ->
$00EE2F     A9 A2                       lda     #$A2
$00EE31     85 03                       sta     Test
$00EE33     A9 FF                       lda     #$FF
$00EE35     25 10                       and     TmpZP0
$00EE37                 L331
$00EE37     D0 FE                       bne     L331            ; error, ->
$00EE39                 L332
$00EE39     30 FE                       bmi     L332            ; error, ->
$00EE3B     A9 A3                       lda     #$A3
$00EE3D     85 03                       sta     Test
$00EE3F     A9 FF                       lda     #$FF
$00EE41     2D 00 10                    and     TmpAB0
$00EE44                 L341
$00EE44     D0 FE                       bne     L341            ; error, ->
$00EE46                 L342
$00EE46     30 FE                       bmi     L342            ; error, ->
$00EE48     A9 A4                       lda     #$A4
$00EE4A     85 03                       sta     Test
$00EE4C     A9 FF                       lda     #$FF
$00EE4E     35 10                       and     TmpZP0,X
$00EE50                 L351
$00EE50     D0 FE                       bne     L351            ; error, ->
$00EE52                 L352
$00EE52     30 FE                       bmi     L352            ; error, ->
$00EE54     A9 A5                       lda     #$A5
$00EE56     85 03                       sta     Test
$00EE58     A9 FF                       lda     #$FF
$00EE5A     3D 00 10                    and     TmpAB0,X
$00EE5D                 L361
$00EE5D     D0 FE                       bne     L361            ; error, ->
$00EE5F                 L362
$00EE5F     30 FE                       bmi     L362            ; error, ->
$00EE61     A9 A6                       lda     #$A6
$00EE63     85 03                       sta     Test
$00EE65     A9 FF                       lda     #$FF
$00EE67     39 00 10                    and     TmpAB0,Y
$00EE6A                 L371
$00EE6A     D0 FE                       bne     L371            ; error, ->
$00EE6C                 L372
$00EE6C     30 FE                       bmi     L372            ; error, ->
$00EE6E     A9 A7                       lda     #$A7
$00EE70     85 03                       sta     Test
$00EE72     A9 FF                       lda     #$FF
$00EE74     21 10                       and     (TmpZP0,X)
$00EE76                 L381
$00EE76     D0 FE                       bne     L381            ; error, ->
$00EE78                 L382
$00EE78     30 FE                       bmi     L382            ; error, ->
$00EE7A     A9 A8                       lda     #$A8
$00EE7C     85 03                       sta     Test
$00EE7E     A9 FF                       lda     #$FF
$00EE80     31 14                       and     (TmpZP0+4),Y
$00EE82                 L391
$00EE82     D0 FE                       bne     L391            ; error, ->
$00EE84                 L392
$00EE84     30 FE                       bmi     L392            ; error, ->
$00EE86                 ;* A = 0, memory = $FF
$00EE86     A9 A9                       lda     #$A9
$00EE88     85 03                       sta     Test
$00EE8A     A9 FF                       lda     #$FF
$00EE8C     85 10                       sta     TmpZP0
$00EE8E     8D 00 10                    sta     TmpAB0
$00EE91     95 10                       sta     TmpZP0,X
$00EE93     9D 00 10                    sta     TmpAB0,X
$00EE96     99 00 10                    sta     TmpAB0,Y
$00EE99     81 10                       sta     (TmpZP0,X)
$00EE9B     91 14                       sta     (TmpZP0+4),Y
$00EE9D     A9 00                       lda     #0
$00EE9F     29 FF                       and     #$FF
$00EEA1                 L421
$00EEA1     D0 FE                       bne     L421            ; error, ->
$00EEA3                 L422
$00EEA3     30 FE                       bmi     L422            ; error, ->
$00EEA5     A9 AA                       lda     #$AA
$00EEA7     85 03                       sta     Test
$00EEA9     A9 00                       lda     #0
$00EEAB     25 10                       and     TmpZP0
$00EEAD                 L431
$00EEAD     D0 FE                       bne     L431            ; error, ->
$00EEAF                 L432
$00EEAF     30 FE                       bmi     L432            ; error, ->
$00EEB1     A9 AB                       lda     #$AB
$00EEB3     85 03                       sta     Test
$00EEB5     A9 00                       lda     #0
$00EEB7     2D 00 10                    and     TmpAB0
$00EEBA                 L441
$00EEBA     D0 FE                       bne     L441            ; error, ->
$00EEBC                 L442
$00EEBC     30 FE                       bmi     L442            ; error, ->
$00EEBE     A9 AC                       lda     #$AC
$00EEC0     85 03                       sta     Test
$00EEC2     A9 00                       lda     #0
$00EEC4     35 10                       and     TmpZP0,X
$00EEC6                 L451
$00EEC6     D0 FE                       bne     L451            ; error, ->
$00EEC8                 L452
$00EEC8     30 FE                       bmi     L452            ; error, ->
$00EECA     A9 AD                       lda     #$AD
$00EECC     85 03                       sta     Test
$00EECE     A9 00                       lda     #0
$00EED0     3D 00 10                    and     TmpAB0,X
$00EED3                 L461
$00EED3     D0 FE                       bne     L461            ; error, ->
$00EED5                 L462
$00EED5     30 FE                       bmi     L462            ; error, ->
$00EED7     A9 AE                       lda     #$AE
$00EED9     85 03                       sta     Test
$00EEDB     A9 00                       lda     #0
$00EEDD     39 00 10                    and     TmpAB0,Y
$00EEE0                 L471
$00EEE0     D0 FE                       bne     L471            ; error, ->
$00EEE2                 L472
$00EEE2     30 FE                       bmi     L472            ; error, ->
$00EEE4     A9 AF                       lda     #$AF
$00EEE6     85 03                       sta     Test
$00EEE8     A9 00                       lda     #0
$00EEEA     21 10                       and     (TmpZP0,X)
$00EEEC                 L481
$00EEEC     D0 FE                       bne     L481            ; error, ->
$00EEEE                 L482
$00EEEE     30 FE                       bmi     L482            ; error, ->
$00EEF0     A9 B0                       lda     #$B0
$00EEF2     85 03                       sta     Test
$00EEF4     A9 00                       lda     #0
$00EEF6     31 14                       and     (TmpZP0+4),Y
$00EEF8                 L491
$00EEF8     D0 FE                       bne     L491            ; error, ->
$00EEFA                 L492
$00EEFA     30 FE                       bmi     L492            ; error, ->
$00EEFC                 ;* A = $AA, memory = $55
$00EEFC     A9 B1                       lda     #$B1
$00EEFE     85 03                       sta     Test
$00EF00     A9 55                       lda     #$55
$00EF02     85 10                       sta     TmpZP0
$00EF04     8D 00 10                    sta     TmpAB0
$00EF07     95 10                       sta     TmpZP0,X
$00EF09     9D 00 10                    sta     TmpAB0,X
$00EF0C     99 00 10                    sta     TmpAB0,Y
$00EF0F     81 10                       sta     (TmpZP0,X)
$00EF11     91 14                       sta     (TmpZP0+4),Y
$00EF13     A9 AA                       lda     #$AA
$00EF15     29 55                       and     #$55
$00EF17                 L521
$00EF17     D0 FE                       bne     L521            ; error, ->
$00EF19                 L522
$00EF19     30 FE                       bmi     L522            ; error, ->
$00EF1B     A9 B2                       lda     #$B2
$00EF1D     85 03                       sta     Test
$00EF1F     A9 AA                       lda     #$AA
$00EF21     25 10                       and     TmpZP0
$00EF23                 L531
$00EF23     D0 FE                       bne     L531            ; error, ->
$00EF25                 L532
$00EF25     30 FE                       bmi     L532            ; error, ->
$00EF27     A9 B3                       lda     #$B3
$00EF29     85 03                       sta     Test
$00EF2B     A9 AA                       lda     #$AA
$00EF2D     2D 00 10                    and     TmpAB0
$00EF30                 L541
$00EF30     D0 FE                       bne     L541            ; error, ->
$00EF32                 L542
$00EF32     30 FE                       bmi     L542            ; error, ->
$00EF34     A9 B4                       lda     #$B4
$00EF36     85 03                       sta     Test
$00EF38     A9 AA                       lda     #$AA
$00EF3A     35 10                       and     TmpZP0,X
$00EF3C                 L551
$00EF3C     D0 FE                       bne     L551            ; error, ->
$00EF3E                 L552
$00EF3E     30 FE                       bmi     L552            ; error, ->
$00EF40     A9 B5                       lda     #$B5
$00EF42     85 03                       sta     Test
$00EF44     A9 AA                       lda     #$AA
$00EF46     3D 00 10                    and     TmpAB0,X
$00EF49                 L561
$00EF49     D0 FE                       bne     L561            ; error, ->
$00EF4B                 L562
$00EF4B     30 FE                       bmi     L562            ; error, ->
$00EF4D     A9 B6                       lda     #$B6
$00EF4F     85 03                       sta     Test
$00EF51     A9 AA                       lda     #$AA
$00EF53     39 00 10                    and     TmpAB0,Y
$00EF56                 L571
$00EF56     D0 FE                       bne     L571            ; error, ->
$00EF58                 L572
$00EF58     30 FE                       bmi     L572            ; error, ->
$00EF5A     A9 B7                       lda     #$B7
$00EF5C     85 03                       sta     Test
$00EF5E     A9 AA                       lda     #$AA
$00EF60     21 10                       and     (TmpZP0,X)
$00EF62                 L581
$00EF62     D0 FE                       bne     L581            ; error, ->
$00EF64                 L582
$00EF64     30 FE                       bmi     L582            ; error, ->
$00EF66     A9 B8                       lda     #$B8
$00EF68     85 03                       sta     Test
$00EF6A     A9 AA                       lda     #$AA
$00EF6C     31 14                       and     (TmpZP0+4),Y
$00EF6E                 L591
$00EF6E     D0 FE                       bne     L591            ; error, ->
$00EF70                 L592
$00EF70     30 FE                       bmi     L592            ; error, ->
$00EF72                 ;* A = $FF, memory = $FF
$00EF72     A9 B9                       lda     #$B9
$00EF74     85 03                       sta     Test
$00EF76     A9 FF                       lda     #$FF
$00EF78     85 10                       sta     TmpZP0
$00EF7A     8D 00 10                    sta     TmpAB0
$00EF7D     95 10                       sta     TmpZP0,X
$00EF7F     9D 00 10                    sta     TmpAB0,X
$00EF82     99 00 10                    sta     TmpAB0,Y
$00EF85     81 10                       sta     (TmpZP0,X)
$00EF87     91 14                       sta     (TmpZP0+4),Y
$00EF89     A9 FF                       lda     #$FF
$00EF8B     29 FF                       and     #$FF
$00EF8D                 L622
$00EF8D     10 FE                       bpl     L622            ; error, ->
$00EF8F     C9 FF                       cmp     #$FF
$00EF91                 L621
$00EF91     D0 FE                       bne     L621            ; error, ->
$00EF93     A9 BA                       lda     #$BA
$00EF95     85 03                       sta     Test
$00EF97     A9 FF                       lda     #$FF
$00EF99     25 10                       and     TmpZP0
$00EF9B                 L632
$00EF9B     10 FE                       bpl     L632            ; error, ->
$00EF9D     C9 FF                       cmp     #$FF
$00EF9F                 L631
$00EF9F     D0 FE                       bne     L631            ; error, ->
$00EFA1     A9 BB                       lda     #$BB
$00EFA3     85 03                       sta     Test
$00EFA5     A9 FF                       lda     #$FF
$00EFA7     2D 00 10                    and     TmpAB0
$00EFAA                 L642
$00EFAA     10 FE                       bpl     L642            ; error, ->
$00EFAC     C9 FF                       cmp     #$FF
$00EFAE                 L641
$00EFAE     D0 FE                       bne     L641            ; error, ->
$00EFB0     A9 BC                       lda     #$BC
$00EFB2     85 03                       sta     Test
$00EFB4     A9 FF                       lda     #$FF
$00EFB6     35 10                       and     TmpZP0,X
$00EFB8                 L652
$00EFB8     10 FE                       bpl     L652            ; error, ->
$00EFBA     C9 FF                       cmp     #$FF
$00EFBC                 L651
$00EFBC     D0 FE                       bne     L651            ; error, ->
$00EFBE     A9 BD                       lda     #$BD
$00EFC0     85 03                       sta     Test
$00EFC2     A9 FF                       lda     #$FF
$00EFC4     3D 00 10                    and     TmpAB0,X
$00EFC7                 L662
$00EFC7     10 FE                       bpl     L662            ; error, ->
$00EFC9     C9 FF                       cmp     #$FF
$00EFCB                 L661
$00EFCB     D0 FE                       bne     L661            ; error, ->
$00EFCD     A9 BE                       lda     #$BE
$00EFCF     85 03                       sta     Test
$00EFD1     A9 FF                       lda     #$FF
$00EFD3     39 00 10                    and     TmpAB0,Y
$00EFD6                 L672
$00EFD6     10 FE                       bpl     L672            ; error, ->
$00EFD8     C9 FF                       cmp     #$FF
$00EFDA                 L671
$00EFDA     D0 FE                       bne     L671            ; error, ->
$00EFDC     A9 BF                       lda     #$BF
$00EFDE     85 03                       sta     Test
$00EFE0     A9 FF                       lda     #$FF
$00EFE2     21 10                       and     (TmpZP0,X)
$00EFE4                 L682
$00EFE4     10 FE                       bpl     L682            ; error, ->
$00EFE6     C9 FF                       cmp     #$FF
$00EFE8                 L681
$00EFE8     D0 FE                       bne     L681            ; error, ->
$00EFEA     A9 C0                       lda     #$C0
$00EFEC     85 03                       sta     Test
$00EFEE     A9 FF                       lda     #$FF
$00EFF0     31 14                       and     (TmpZP0+4),Y
$00EFF2                 L692
$00EFF2     10 FE                       bpl     L692            ; error, ->
$00EFF4     C9 FF                       cmp     #$FF
$00EFF6                 L691
$00EFF6     D0 FE                       bne     L691            ; error, ->
$00EFF8                 ;**  ORA
$00EFF8                 ;* A = $FF, memory = 0
$00EFF8     A9 C1                       lda     #$C1
$00EFFA     85 03                       sta     Test
$00EFFC     A9 00                       lda     #0
$00EFFE     85 10                       sta     TmpZP0
$00F000     8D 00 10                    sta     TmpAB0
$00F003     95 10                       sta     TmpZP0,X
$00F005     9D 00 10                    sta     TmpAB0,X
$00F008     99 00 10                    sta     TmpAB0,Y
$00F00B     81 10                       sta     (TmpZP0,X)
$00F00D     91 14                       sta     (TmpZP0+4),Y
$00F00F     A9 FF                       lda     #$FF
$00F011     09 00                       ora     #0
$00F013                 L722
$00F013     10 FE                       bpl     L722            ; error, ->
$00F015     C9 FF                       cmp     #$FF
$00F017                 L721
$00F017     D0 FE                       bne     L721            ; error, ->
$00F019     A9 C2                       lda     #$C2
$00F01B     85 03                       sta     Test
$00F01D     A9 FF                       lda     #$FF
$00F01F     05 10                       ora     TmpZP0
$00F021                 L732
$00F021     10 FE                       bpl     L732            ; error, ->
$00F023     C9 FF                       cmp     #$FF
$00F025                 L731
$00F025     D0 FE                       bne     L731            ; error, ->
$00F027     A9 C3                       lda     #$C3
$00F029     85 03                       sta     Test
$00F02B     A9 FF                       lda     #$FF
$00F02D     0D 00 10                    ora     TmpAB0
$00F030                 L742
$00F030     10 FE                       bpl     L742            ; error, ->
$00F032     C9 FF                       cmp     #$FF
$00F034                 L741
$00F034     D0 FE                       bne     L741            ; error, ->
$00F036     A9 C4                       lda     #$C4
$00F038     85 03                       sta     Test
$00F03A     A9 FF                       lda     #$FF
$00F03C     15 10                       ora     TmpZP0,X
$00F03E                 L752
$00F03E     10 FE                       bpl     L752            ; error, ->
$00F040     C9 FF                       cmp     #$FF
$00F042                 L751
$00F042     D0 FE                       bne     L751            ; error, ->
$00F044     A9 C5                       lda     #$C5
$00F046     85 03                       sta     Test
$00F048     A9 FF                       lda     #$FF
$00F04A     1D 00 10                    ora     TmpAB0,X
$00F04D                 L762
$00F04D     10 FE                       bpl     L762            ; error, ->
$00F04F     C9 FF                       cmp     #$FF
$00F051                 L761
$00F051     D0 FE                       bne     L761            ; error, ->
$00F053     A9 C6                       lda     #$C6
$00F055     85 03                       sta     Test
$00F057     A9 FF                       lda     #$FF
$00F059     19 00 10                    ora     TmpAB0,Y
$00F05C                 L772
$00F05C     10 FE                       bpl     L772            ; error, ->
$00F05E     C9 FF                       cmp     #$FF
$00F060                 L771
$00F060     D0 FE                       bne     L771            ; error, ->
$00F062     A9 C7                       lda     #$C7
$00F064     85 03                       sta     Test
$00F066     A9 FF                       lda     #$FF
$00F068     01 10                       ora     (TmpZP0,X)
$00F06A                 L782
$00F06A     10 FE                       bpl     L782            ; error, ->
$00F06C     C9 FF                       cmp     #$FF
$00F06E                 L781
$00F06E     D0 FE                       bne     L781            ; error, ->
$00F070     A9 C8                       lda     #$C8
$00F072     85 03                       sta     Test
$00F074     A9 FF                       lda     #$FF
$00F076     11 14                       ora     (TmpZP0+4),Y
$00F078                 L792
$00F078     10 FE                       bpl     L792            ; error, ->
$00F07A     C9 FF                       cmp     #$FF
$00F07C                 L791
$00F07C     D0 FE                       bne     L791            ; error, ->
$00F07E                 ;* A = 0, memory = $FF
$00F07E     A9 C9                       lda     #$C9
$00F080     85 03                       sta     Test
$00F082     A9 FF                       lda     #$FF
$00F084     85 10                       sta     TmpZP0
$00F086     8D 00 10                    sta     TmpAB0
$00F089     95 10                       sta     TmpZP0,X
$00F08B     9D 00 10                    sta     TmpAB0,X
$00F08E     99 00 10                    sta     TmpAB0,Y
$00F091     81 10                       sta     (TmpZP0,X)
$00F093     91 14                       sta     (TmpZP0+4),Y
$00F095     A9 00                       lda     #0
$00F097     09 FF                       ora     #$FF
$00F099                 L822
$00F099     10 FE                       bpl     L822            ; error, ->
$00F09B     C9 FF                       cmp     #$FF
$00F09D                 L821
$00F09D     D0 FE                       bne     L821            ; error, ->
$00F09F     A9 CA                       lda     #$CA
$00F0A1     85 03                       sta     Test
$00F0A3     A9 00                       lda     #0
$00F0A5     05 10                       ora     TmpZP0
$00F0A7                 L832
$00F0A7     10 FE                       bpl     L832            ; error, ->
$00F0A9     C9 FF                       cmp     #$FF
$00F0AB                 L831
$00F0AB     D0 FE                       bne     L831            ; error, ->
$00F0AD     A9 CB                       lda     #$CB
$00F0AF     85 03                       sta     Test
$00F0B1     A9 00                       lda     #0
$00F0B3     0D 00 10                    ora     TmpAB0
$00F0B6                 L842
$00F0B6     10 FE                       bpl     L842            ; error, ->
$00F0B8     C9 FF                       cmp     #$FF
$00F0BA                 L841
$00F0BA     D0 FE                       bne     L841            ; error, ->
$00F0BC     A9 CC                       lda     #$CC
$00F0BE     85 03                       sta     Test
$00F0C0     A9 00                       lda     #0
$00F0C2     15 10                       ora     TmpZP0,X
$00F0C4                 L852
$00F0C4     10 FE                       bpl     L852            ; error, ->
$00F0C6     C9 FF                       cmp     #$FF
$00F0C8                 L851
$00F0C8     D0 FE                       bne     L851            ; error, ->
$00F0CA     A9 CD                       lda     #$CD
$00F0CC     85 03                       sta     Test
$00F0CE     A9 00                       lda     #0
$00F0D0     1D 00 10                    ora     TmpAB0,X
$00F0D3                 L862
$00F0D3     10 FE                       bpl     L862            ; error, ->
$00F0D5     C9 FF                       cmp     #$FF
$00F0D7                 L861
$00F0D7     D0 FE                       bne     L861            ; error, ->
$00F0D9     A9 CE                       lda     #$CE
$00F0DB     85 03                       sta     Test
$00F0DD     A9 00                       lda     #0
$00F0DF     19 00 10                    ora     TmpAB0,Y
$00F0E2                 L872
$00F0E2     10 FE                       bpl     L872            ; error, ->
$00F0E4     C9 FF                       cmp     #$FF
$00F0E6                 L871
$00F0E6     D0 FE                       bne     L871            ; error, ->
$00F0E8     A9 CF                       lda     #$CF
$00F0EA     85 03                       sta     Test
$00F0EC     A9 00                       lda     #0
$00F0EE     01 10                       ora     (TmpZP0,X)
$00F0F0                 L882
$00F0F0     10 FE                       bpl     L882            ; error, ->
$00F0F2     C9 FF                       cmp     #$FF
$00F0F4                 L881
$00F0F4     D0 FE                       bne     L881            ; error, ->
$00F0F6     A9 D0                       lda     #$D0
$00F0F8     85 03                       sta     Test
$00F0FA     A9 00                       lda     #0
$00F0FC     11 14                       ora     (TmpZP0+4),Y
$00F0FE                 L892
$00F0FE     10 FE                       bpl     L892            ; error, ->
$00F100     C9 FF                       cmp     #$FF
$00F102                 L891
$00F102     D0 FE                       bne     L891            ; error, ->
$00F104                 ;* A = 0, memory = 0
$00F104     A9 D1                       lda     #$D1
$00F106     85 03                       sta     Test
$00F108     A9 00                       lda     #0
$00F10A     85 10                       sta     TmpZP0
$00F10C     8D 00 10                    sta     TmpAB0
$00F10F     95 10                       sta     TmpZP0,X
$00F111     9D 00 10                    sta     TmpAB0,X
$00F114     99 00 10                    sta     TmpAB0,Y
$00F117     81 10                       sta     (TmpZP0,X)
$00F119     91 14                       sta     (TmpZP0+4),Y
$00F11B     A9 00                       lda     #0
$00F11D     09 00                       ora     #0
$00F11F                 L922
$00F11F     30 FE                       bmi     L922            ; error, ->
$00F121                 L921
$00F121     D0 FE                       bne     L921            ; error, ->
$00F123     A9 CA                       lda     #$CA
$00F125     85 03                       sta     Test
$00F127     A9 00                       lda     #0
$00F129     05 10                       ora     TmpZP0
$00F12B                 L932
$00F12B     30 FE                       bmi     L932            ; error, ->
$00F12D                 L931
$00F12D     D0 FE                       bne     L931            ; error, ->
$00F12F     A9 CB                       lda     #$CB
$00F131     85 03                       sta     Test
$00F133     A9 00                       lda     #0
$00F135     0D 00 10                    ora     TmpAB0
$00F138                 L942
$00F138     30 FE                       bmi     L942            ; error, ->
$00F13A                 L941
$00F13A     D0 FE                       bne     L941            ; error, ->
$00F13C     A9 CC                       lda     #$CC
$00F13E     85 03                       sta     Test
$00F140     A9 00                       lda     #0
$00F142     15 10                       ora     TmpZP0,X
$00F144                 L952
$00F144     30 FE                       bmi     L952            ; error, ->
$00F146                 L951
$00F146     D0 FE                       bne     L951            ; error, ->
$00F148     A9 CD                       lda     #$CD
$00F14A     85 03                       sta     Test
$00F14C     A9 00                       lda     #0
$00F14E     1D 00 10                    ora     TmpAB0,X
$00F151                 L962
$00F151     30 FE                       bmi     L962            ; error, ->
$00F153                 L961
$00F153     D0 FE                       bne     L961            ; error, ->
$00F155     A9 CE                       lda     #$CE
$00F157     85 03                       sta     Test
$00F159     A9 00                       lda     #0
$00F15B     19 00 10                    ora     TmpAB0,Y
$00F15E                 L972
$00F15E     30 FE                       bmi     L972            ; error, ->
$00F160                 L971
$00F160     D0 FE                       bne     L971            ; error, ->
$00F162     A9 CF                       lda     #$CF
$00F164     85 03                       sta     Test
$00F166     A9 00                       lda     #0
$00F168     01 10                       ora     (TmpZP0,X)
$00F16A                 L982
$00F16A     30 FE                       bmi     L982            ; error, ->
$00F16C                 L981
$00F16C     D0 FE                       bne     L981            ; error, ->
$00F16E     A9 D0                       lda     #$D0
$00F170     85 03                       sta     Test
$00F172     A9 00                       lda     #0
$00F174     11 14                       ora     (TmpZP0+4),Y
$00F176                 L992
$00F176     30 FE                       bmi     L992            ; error, ->
$00F178                 L991
$00F178     D0 FE                       bne     L991            ; error, ->
$00F17A                 ;**  ASL
$00F17A                 ;* ASL A
$00F17A     A9 D1                       lda     #$D1
$00F17C     85 03                       sta     Test
$00F17E     A9 01                       lda     #1
$00F180     38                          sec
$00F181     0A                          asl
$00F182                 M001
$00F182     B0 FE                       bcs     M001
$00F184                 M002
$00F184     30 02                       bmi     M003
$00F186     C9 02                       cmp     #2
$00F188                 M003
$00F188     D0 FE                       bne     M003
$00F18A     38                          sec
$00F18B     0A                          asl
$00F18C                 M004
$00F18C     B0 FE                       bcs     M004
$00F18E                 M005
$00F18E     30 FE                       bmi     M005
$00F190     C9 04                       cmp     #4
$00F192                 M006
$00F192     D0 FE                       bne     M006
$00F194     38                          sec
$00F195     0A                          asl
$00F196                 M007
$00F196     B0 FE                       bcs     M007
$00F198                 M008
$00F198     30 FE                       bmi     M008
$00F19A     C9 08                       cmp     #8
$00F19C                 M009
$00F19C     D0 FE                       bne     M009
$00F19E     38                          sec
$00F19F     0A                          asl
$00F1A0                 M010
$00F1A0     B0 FE                       bcs     M010
$00F1A2                 M011
$00F1A2     30 FE                       bmi     M011
$00F1A4     C9 10                       cmp     #$10
$00F1A6                 M012
$00F1A6     D0 FE                       bne     M012
$00F1A8     38                          sec
$00F1A9     0A                          asl
$00F1AA                 M013
$00F1AA     B0 FE                       bcs     M013
$00F1AC                 M014
$00F1AC     30 FE                       bmi     M014
$00F1AE     C9 20                       cmp     #$20
$00F1B0                 M015
$00F1B0     D0 FE                       bne     M015
$00F1B2     38                          sec
$00F1B3     0A                          asl
$00F1B4                 M016
$00F1B4     B0 FE                       bcs     M016
$00F1B6                 M017
$00F1B6     30 FE                       bmi     M017
$00F1B8     C9 40                       cmp     #$40
$00F1BA                 M018
$00F1BA     D0 FE                       bne     M018
$00F1BC     38                          sec
$00F1BD     0A                          asl
$00F1BE                 M019
$00F1BE     B0 FE                       bcs     M019
$00F1C0                 M020
$00F1C0     10 FE                       bpl     M020
$00F1C2     C9 80                       cmp     #$80
$00F1C4                 M021
$00F1C4     D0 FE                       bne     M021
$00F1C6     0A                          asl
$00F1C7                 M022
$00F1C7     90 FE                       bcc     M022
$00F1C9                 M023
$00F1C9     30 FE                       bmi     M023
$00F1CB                 M024
$00F1CB     D0 FE                       bne     M024
$00F1CD                 ;* Rest of possible ASL opcodes. Only read/write has to be tested because
$00F1CD                 ;   the shifting itself doesn't have to be tested anymore.  
$00F1CD     A9 55                       lda     #$55
$00F1CF     85 10                       sta     TmpZP0
$00F1D1     8D 00 10                    sta     TmpAB0
$00F1D4     95 10                       sta     TmpZP0,X
$00F1D6     9D 00 10                    sta     TmpAB0,X
$00F1D9     A9 D2                       lda     #$D2
$00F1DB     85 03                       sta     Test
$00F1DD     06 10                       asl     TmpZP0
$00F1DF     A5 10                       lda     TmpZP0
$00F1E1     C9 AA                       cmp     #$AA
$00F1E3                 M025            
$00F1E3     D0 FE                       bne     M025
$00F1E5     A9 D3                       lda     #$D3
$00F1E7     85 03                       sta     Test
$00F1E9     0E 00 10                    asl     TmpAB0
$00F1EC     AD 00 10                    lda     TmpAB0
$00F1EF     C9 AA                       cmp     #$AA
$00F1F1                 M026            
$00F1F1     D0 FE                       bne     M026
$00F1F3     A9 D4                       lda     #$D4
$00F1F5     85 03                       sta     Test
$00F1F7     16 10                       asl     TmpZP0,X
$00F1F9     B5 10                       lda     TmpZP0,X
$00F1FB     C9 AA                       cmp     #$AA
$00F1FD                 M027            
$00F1FD     D0 FE                       bne     M027
$00F1FF     A9 D5                       lda     #$D5
$00F201     85 03                       sta     Test
$00F203     1E 00 10                    asl     TmpAB0,X
$00F206     BD 00 10                    lda     TmpAB0,X
$00F209     C9 AA                       cmp     #$AA
$00F20B                 M028            
$00F20B     D0 FE                       bne     M028
$00F20D                 ;**  LSR
$00F20D     A9 D6                       lda     #$D6
$00F20F     85 03                       sta     Test
$00F211     A9 80                       lda     #$80
$00F213     38                          sec
$00F214     4A                          lsr
$00F215                 M031
$00F215     B0 FE                       bcs     M031
$00F217                 M032
$00F217     30 FE                       bmi     M032
$00F219     C9 40                       cmp     #$40
$00F21B                 M033
$00F21B     D0 FE                       bne     M033
$00F21D     38                          sec
$00F21E     4A                          lsr
$00F21F                 M034
$00F21F     B0 FE                       bcs     M034
$00F221                 M035
$00F221     30 FE                       bmi     M035
$00F223     C9 20                       cmp     #$20
$00F225                 M036
$00F225     D0 FE                       bne     M036
$00F227     38                          sec
$00F228     4A                          lsr
$00F229                 M037
$00F229     B0 FE                       bcs     M037
$00F22B                 M038
$00F22B     30 FE                       bmi     M038
$00F22D     C9 10                       cmp     #$10
$00F22F                 M039
$00F22F     D0 FE                       bne     M039
$00F231     38                          sec
$00F232     4A                          lsr
$00F233                 M041
$00F233     B0 FE                       bcs     M041
$00F235                 M042
$00F235     30 02                       bmi     M043
$00F237     C9 08                       cmp     #8
$00F239                 M043
$00F239     D0 FE                       bne     M043
$00F23B     38                          sec
$00F23C     4A                          lsr
$00F23D                 M044
$00F23D     B0 FE                       bcs     M044
$00F23F                 M045
$00F23F     30 FE                       bmi     M045
$00F241     C9 04                       cmp     #4
$00F243                 M046
$00F243     D0 FE                       bne     M046
$00F245     38                          sec
$00F246     4A                          lsr
$00F247                 M047
$00F247     B0 FE                       bcs     M047
$00F249                 M048
$00F249     30 FE                       bmi     M048
$00F24B     C9 02                       cmp     #2
$00F24D                 M049
$00F24D     D0 FE                       bne     M049
$00F24F     38                          sec
$00F250     4A                          lsr
$00F251                 M051
$00F251     B0 FE                       bcs     M051
$00F253                 M052
$00F253     30 02                       bmi     M053
$00F255     C9 01                       cmp     #1
$00F257                 M053
$00F257     D0 FE                       bne     M053
$00F259     4A                          lsr
$00F25A                 M054
$00F25A     90 FE                       bcc     M054
$00F25C                 M055
$00F25C     30 FE                       bmi     M055
$00F25E                 M056
$00F25E     D0 FE                       bne     M056
$00F260                 ;* Rest of possible LSR opcodes. Only read/write has to be tested because
$00F260                 ;   the shifting itself doesn't have to be tested anymore.  
$00F260     A9 AA                       lda     #$AA
$00F262     85 10                       sta     TmpZP0
$00F264     8D 00 10                    sta     TmpAB0
$00F267     95 10                       sta     TmpZP0,X
$00F269     9D 00 10                    sta     TmpAB0,X
$00F26C     A9 D7                       lda     #$D7
$00F26E     85 03                       sta     Test
$00F270     46 10                       lsr     TmpZP0
$00F272     A5 10                       lda     TmpZP0
$00F274     C9 55                       cmp     #$55
$00F276                 M057            
$00F276     D0 FE                       bne     M057
$00F278     A9 D8                       lda     #$D8
$00F27A     85 03                       sta     Test
$00F27C     4E 00 10                    lsr     TmpAB0
$00F27F     AD 00 10                    lda     TmpAB0
$00F282     C9 55                       cmp     #$55
$00F284                 M058            
$00F284     D0 FE                       bne     M058
$00F286     A9 D9                       lda     #$D9
$00F288     85 03                       sta     Test
$00F28A     56 10                       lsr     TmpZP0,X
$00F28C     B5 10                       lda     TmpZP0,X
$00F28E     C9 55                       cmp     #$55
$00F290                 M059            
$00F290     D0 FE                       bne     M059
$00F292     A9 DA                       lda     #$DA
$00F294     85 03                       sta     Test
$00F296     5E 00 10                    lsr     TmpAB0,X
$00F299     BD 00 10                    lda     TmpAB0,X
$00F29C     C9 55                       cmp     #$55
$00F29E                 M060            
$00F29E     D0 FE                       bne     M060
$00F2A0                 ;**  ROL
$00F2A0     A9 D8                       lda     #$D8
$00F2A2     85 03                       sta     Test
$00F2A4     A9 11                       lda     #$11
$00F2A6     18                          clc
$00F2A7     2A                          rol
$00F2A8                 M071
$00F2A8     B0 FE                       bcs     M071
$00F2AA                 M072
$00F2AA     30 FE                       bmi     M072
$00F2AC     C9 22                       cmp     #$22
$00F2AE                 M073
$00F2AE     D0 FE                       bne     M073
$00F2B0     38                          sec
$00F2B1     2A                          rol
$00F2B2                 M074
$00F2B2     B0 FE                       bcs     M074
$00F2B4                 M075
$00F2B4     30 FE                       bmi     M075
$00F2B6     C9 45                       cmp     #$45
$00F2B8                 M076
$00F2B8     D0 FE                       bne     M076
$00F2BA     18                          clc
$00F2BB     2A                          rol
$00F2BC                 M077
$00F2BC     B0 FE                       bcs     M077
$00F2BE                 M078
$00F2BE     10 FE                       bpl     M078
$00F2C0     C9 8A                       cmp     #$8A
$00F2C2                 M079
$00F2C2     D0 FE                       bne     M079
$00F2C4     18                          clc
$00F2C5     2A                          rol
$00F2C6                 M081
$00F2C6     90 FE                       bcc     M081
$00F2C8                 M082
$00F2C8     30 FE                       bmi     M082
$00F2CA     C9 14                       cmp     #TmpZP0+4
$00F2CC                 M083
$00F2CC     D0 FE                       bne     M083
$00F2CE                 ;* Rest of possible ROL opcodes. Only read/write has to be tested because
$00F2CE                 ;   the shifting itself doesn't have to be tested anymore.  
$00F2CE     A9 55                       lda     #$55
$00F2D0     85 10                       sta     TmpZP0
$00F2D2     8D 00 10                    sta     TmpAB0
$00F2D5     95 10                       sta     TmpZP0,X
$00F2D7     9D 00 10                    sta     TmpAB0,X
$00F2DA     A9 D9                       lda     #$D9
$00F2DC     85 03                       sta     Test
$00F2DE     38                          sec
$00F2DF     26 10                       rol     TmpZP0
$00F2E1     A5 10                       lda     TmpZP0
$00F2E3     C9 AB                       cmp     #$AB
$00F2E5                 M085            
$00F2E5     D0 FE                       bne     M085
$00F2E7     A9 DA                       lda     #$DA
$00F2E9     85 03                       sta     Test
$00F2EB     38                          sec
$00F2EC     2E 00 10                    rol     TmpAB0
$00F2EF     AD 00 10                    lda     TmpAB0
$00F2F2     C9 AB                       cmp     #$AB
$00F2F4                 M086            
$00F2F4     D0 FE                       bne     M086
$00F2F6     A9 DB                       lda     #$DB
$00F2F8     85 03                       sta     Test
$00F2FA     38                          sec
$00F2FB     36 10                       rol     TmpZP0,X
$00F2FD     B5 10                       lda     TmpZP0,X
$00F2FF     C9 AB                       cmp     #$AB
$00F301                 M087            
$00F301     D0 FE                       bne     M087
$00F303     A9 DC                       lda     #$DC
$00F305     85 03                       sta     Test
$00F307     38                          sec
$00F308     3E 00 10                    rol     TmpAB0,X
$00F30B     BD 00 10                    lda     TmpAB0,X
$00F30E     C9 AB                       cmp     #$AB
$00F310                 M088            
$00F310     D0 FE                       bne     M088
$00F312                 ;**  ROR
$00F312     A9 DD                       lda     #$DD
$00F314     85 03                       sta     Test
$00F316     A9 88                       lda     #$88
$00F318     18                          clc
$00F319     6A                          ror
$00F31A                 M091
$00F31A     B0 FE                       bcs     M091
$00F31C                 M092
$00F31C     30 FE                       bmi     M092
$00F31E     C9 44                       cmp     #$44
$00F320                 M093
$00F320     D0 FE                       bne     M093
$00F322     38                          sec
$00F323     6A                          ror
$00F324                 M094
$00F324     B0 FE                       bcs     M094
$00F326                 M095
$00F326     10 FE                       bpl     M095
$00F328     C9 A2                       cmp     #$A2
$00F32A                 M096
$00F32A     D0 FE                       bne     M096
$00F32C     18                          clc
$00F32D     6A                          ror
$00F32E                 M097
$00F32E     B0 FE                       bcs     M097
$00F330                 M098
$00F330     30 FE                       bmi     M098
$00F332     C9 51                       cmp     #$51
$00F334                 M099
$00F334     D0 FE                       bne     M099
$00F336     18                          clc
$00F337     6A                          ror
$00F338                 M101
$00F338     90 FE                       bcc     M101
$00F33A                 M102
$00F33A     30 FE                       bmi     M102
$00F33C     C9 28                       cmp     #$28
$00F33E                 M103
$00F33E     D0 FE                       bne     M103
$00F340                 ;* Rest of possible ror opcodes. Only read/write has to be tested because
$00F340                 ;   the shifting itself doesn't have to be tested anymore.  
$00F340     A9 AA                       lda     #$AA
$00F342     85 10                       sta     TmpZP0
$00F344     8D 00 10                    sta     TmpAB0
$00F347     95 10                       sta     TmpZP0,X
$00F349     9D 00 10                    sta     TmpAB0,X
$00F34C     A9 DE                       lda     #$DE
$00F34E     85 03                       sta     Test
$00F350     38                          sec
$00F351     66 10                       ror     TmpZP0
$00F353     A5 10                       lda     TmpZP0
$00F355     C9 D5                       cmp     #$D5
$00F357                 M105            
$00F357     D0 FE                       bne     M105
$00F359     A9 DF                       lda     #$DF
$00F35B     85 03                       sta     Test
$00F35D     38                          sec
$00F35E     6E 00 10                    ror     TmpAB0
$00F361     AD 00 10                    lda     TmpAB0
$00F364     C9 D5                       cmp     #$D5
$00F366                 M106            
$00F366     D0 FE                       bne     M106
$00F368     A9 E0                       lda     #$E0
$00F36A     85 03                       sta     Test
$00F36C     38                          sec
$00F36D     76 10                       ror     TmpZP0,X
$00F36F     B5 10                       lda     TmpZP0,X
$00F371     C9 D5                       cmp     #$D5
$00F373                 M107            
$00F373     D0 FE                       bne     M107
$00F375     A9 E1                       lda     #$E1
$00F377     85 03                       sta     Test
$00F379     38                          sec
$00F37A     7E 00 10                    ror     TmpAB0,X
$00F37D     BD 00 10                    lda     TmpAB0,X
$00F380     C9 D5                       cmp     #$D5
$00F382                 M108            
$00F382     D0 FE                       bne     M108
$00F384                 ;**  BIT
$00F384     A9 E1                       lda     #$E1
$00F386     85 03                       sta     Test
$00F388                 ;* A = $FF, memory = 0
$00F388     A9 00                       lda     #0
$00F38A     85 10                       sta     TmpZP0
$00F38C     8D 00 10                    sta     TmpAB0
$00F38F     A9 FF                       lda     #$FF
$00F391     24 10                       bit     TmpZP0
$00F393                 M111
$00F393     D0 FE                       bne     M111            ; error, ->
$00F395                 M112
$00F395     30 FE                       bmi     M112            ; error, ->
$00F397                 M113
$00F397     70 FE                       bvs     M113            ; error, ->
$00F399     A9 E2                       lda     #$E2
$00F39B     85 03                       sta     Test
$00F39D     A9 FF                       lda     #$FF
$00F39F     2C 00 10                    bit     TmpAB0
$00F3A2                 M121
$00F3A2     D0 FE                       bne     M121            ; error, ->
$00F3A4                 M122
$00F3A4     30 FE                       bmi     M122            ; error, ->
$00F3A6                 M123
$00F3A6     70 FE                       bvs     M123            ; error, ->
$00F3A8                 ;* A = 0, memory = $FF
$00F3A8     A9 E3                       lda     #$E3
$00F3AA     85 03                       sta     Test
$00F3AC     A9 FF                       lda     #$FF
$00F3AE     85 10                       sta     TmpZP0
$00F3B0     8D 00 10                    sta     TmpAB0
$00F3B3     A9 00                       lda     #0
$00F3B5     24 10                       bit     TmpZP0
$00F3B7                 M131
$00F3B7     D0 FE                       bne     M131            ; error, ->
$00F3B9                 M132
$00F3B9     10 FE                       bpl     M132            ; error, ->
$00F3BB                 M133
$00F3BB     50 FE                       bvc     M133            ; error, ->
$00F3BD     A9 E4                       lda     #$E4
$00F3BF     85 03                       sta     Test
$00F3C1     A9 00                       lda     #0
$00F3C3     2C 00 10                    bit     TmpAB0
$00F3C6                 M141
$00F3C6     D0 FE                       bne     M141            ; error, ->
$00F3C8                 M142
$00F3C8     10 FE                       bpl     M142            ; error, ->
$00F3CA                 M143
$00F3CA     50 FE                       bvc     M143            ; error, ->
$00F3CC                 ;* A = $54, memory = $55
$00F3CC     A9 E5                       lda     #$E5
$00F3CE     85 03                       sta     Test
$00F3D0     A9 55                       lda     #$55
$00F3D2     85 10                       sta     TmpZP0
$00F3D4     8D 00 10                    sta     TmpAB0
$00F3D7     A9 54                       lda     #$54
$00F3D9     24 10                       bit     TmpZP0
$00F3DB                 M151
$00F3DB     F0 FE                       beq     M151            ; error, ->
$00F3DD                 M152
$00F3DD     30 FE                       bmi     M152            ; error, ->
$00F3DF                 M153
$00F3DF     50 FE                       bvc     M153            ; error, ->
$00F3E1     A9 E6                       lda     #$E6
$00F3E3     85 03                       sta     Test
$00F3E5     A9 54                       lda     #$54
$00F3E7     2C 00 10                    bit     TmpAB0
$00F3EA                 M161
$00F3EA     F0 FE                       beq     M161            ; error, ->
$00F3EC                 M162
$00F3EC     30 FE                       bmi     M162            ; error, ->
$00F3EE                 M163
$00F3EE     50 FE                       bvc     M163            ; error, ->
$00F3F0                 ;**  DEC
$00F3F0                 ;   Only read/write has to be tested because the decrement itself
$00F3F0                 ;   doesn't have to be tested anymore; done with DEX and DEY. 
$00F3F0     A9 E7                       lda     #$E7
$00F3F2     85 03                       sta     Test
$00F3F4     A9 AA                       lda     #$AA
$00F3F6     85 10                       sta     TmpZP0
$00F3F8     8D 00 10                    sta     TmpAB0
$00F3FB     95 10                       sta     TmpZP0,X
$00F3FD     9D 00 10                    sta     TmpAB0,X
$00F400     C6 10                       dec     TmpZP0
$00F402     A5 10                       lda     TmpZP0
$00F404     C9 A9                       cmp     #$A9
$00F406                 M171
$00F406     D0 FE                       bne     M171
$00F408     CE 00 10                    dec     TmpAB0
$00F40B     AD 00 10                    lda     TmpAB0
$00F40E     C9 A9                       cmp     #$A9
$00F410                 M172
$00F410     D0 FE                       bne     M172
$00F412     D6 10                       dec     TmpZP0,X
$00F414     B5 10                       lda     TmpZP0,X
$00F416     C9 A9                       cmp     #$A9
$00F418                 M173
$00F418     D0 FE                       bne     M173
$00F41A     DE 00 10                    dec     TmpAB0,X
$00F41D     BD 00 10                    lda     TmpAB0,x
$00F420     C9 A9                       cmp     #$A9
$00F422                 M174
$00F422     D0 FE                       bne     M174
$00F424                 ;**  DEC
$00F424                 ;   Only read/write has to be tested because the decrement itself
$00F424                 ;   doesn't have to be tested anymore; done with DEX and DEY. 
$00F424     A9 E7                       lda     #$E7
$00F426     85 03                       sta     Test
$00F428     E6 10                       inc     TmpZP0
$00F42A     A5 10                       lda     TmpZP0
$00F42C     C9 AA                       cmp     #$AA
$00F42E                 M181
$00F42E     D0 FE                       bne     M181
$00F430     EE 00 10                    inc     TmpAB0
$00F433     AD 00 10                    lda     TmpAB0
$00F436     C9 AA                       cmp     #$AA
$00F438                 M182
$00F438     D0 FE                       bne     M182
$00F43A     F6 10                       inc     TmpZP0,X
$00F43C     B5 10                       lda     TmpZP0,X
$00F43E     C9 AA                       cmp     #$AA
$00F440                 M183
$00F440     D0 FE                       bne     M183
$00F442     FE 00 10                    inc     TmpAB0,X
$00F445     BD 00 10                    lda     TmpAB0,x
$00F448     C9 AA                       cmp     #$AA
$00F44A                 M184
$00F44A     D0 FE                       bne     M184
$00F44C                 ;**  EOR
$00F44C                 ;* A = $AA, memory = $55
$00F44C     A9 E8                       lda     #$E8
$00F44E     85 03                       sta     Test
$00F450     A9 55                       lda     #$55
$00F452     85 10                       sta     TmpZP0
$00F454     8D 00 10                    sta     TmpAB0
$00F457     95 10                       sta     TmpZP0,X
$00F459     9D 00 10                    sta     TmpAB0,X
$00F45C     99 00 10                    sta     TmpAB0,Y
$00F45F     81 10                       sta     (TmpZP0,X)
$00F461     91 14                       sta     (TmpZP0+4),Y
$00F463     A9 AA                       lda     #$AA
$00F465     49 55                       eor     #$55
$00F467                 M191
$00F467     F0 FE                       beq     M191            ; error, ->
$00F469                 M192
$00F469     10 FE                       bpl     M192            ; error, ->
$00F46B     C9 FF                       cmp     #$FF
$00F46D                 M193
$00F46D     D0 FE                       bne     M193
$00F46F     A9 E9                       lda     #$E9
$00F471     85 03                       sta     Test
$00F473     A9 AA                       lda     #$AA
$00F475     45 10                       eor     TmpZP0
$00F477                 M201
$00F477     F0 FE                       beq     M201            ; error, ->
$00F479                 M202
$00F479     10 FE                       bpl     M202            ; error, ->
$00F47B     C9 FF                       cmp     #$FF
$00F47D                 M203
$00F47D     D0 FE                       bne     M203
$00F47F     A9 EA                       lda     #$EA
$00F481     85 03                       sta     Test
$00F483     A9 AA                       lda     #$AA
$00F485     4D 00 10                    eor     TmpAB0
$00F488                 M211
$00F488     F0 FE                       beq     M211            ; error, ->
$00F48A                 M212
$00F48A     10 FE                       bpl     M212            ; error, ->
$00F48C     C9 FF                       cmp     #$FF
$00F48E                 M213
$00F48E     D0 FE                       bne     M213
$00F490     A9 EB                       lda     #$EB
$00F492     85 03                       sta     Test
$00F494     A9 AA                       lda     #$AA
$00F496     55 10                       eor     TmpZP0,X
$00F498                 M221
$00F498     F0 FE                       beq     M221            ; error, ->
$00F49A                 M222
$00F49A     10 FE                       bpl     M222            ; error, ->
$00F49C     C9 FF                       cmp     #$FF
$00F49E                 M223
$00F49E     D0 FE                       bne     M223
$00F4A0     A9 EC                       lda     #$EC
$00F4A2     85 03                       sta     Test
$00F4A4     A9 AA                       lda     #$AA
$00F4A6     5D 00 10                    eor     TmpAB0,X
$00F4A9                 M231
$00F4A9     F0 FE                       beq     M231            ; error, ->
$00F4AB                 M232
$00F4AB     10 FE                       bpl     M232            ; error, ->
$00F4AD     C9 FF                       cmp     #$FF
$00F4AF                 M233
$00F4AF     D0 FE                       bne     M233
$00F4B1     A9 ED                       lda     #$ED
$00F4B3     85 03                       sta     Test
$00F4B5     A9 AA                       lda     #$AA
$00F4B7     59 00 10                    eor     TmpAB0,Y
$00F4BA                 M241
$00F4BA     F0 FE                       beq     M241            ; error, ->
$00F4BC                 M242
$00F4BC     10 FE                       bpl     M242            ; error, ->
$00F4BE     C9 FF                       cmp     #$FF
$00F4C0                 M243
$00F4C0     D0 FE                       bne     M243
$00F4C2     A9 EE                       lda     #$EE
$00F4C4     85 03                       sta     Test
$00F4C6     A9 AA                       lda     #$AA
$00F4C8     41 10                       eor     (TmpZP0,X)
$00F4CA                 M251
$00F4CA     F0 FE                       beq     M251            ; error, ->
$00F4CC                 M252
$00F4CC     10 FE                       bpl     M252            ; error, ->
$00F4CE     C9 FF                       cmp     #$FF
$00F4D0                 M253
$00F4D0     D0 FE                       bne     M253
$00F4D2     A9 EF                       lda     #$EF
$00F4D4     85 03                       sta     Test
$00F4D6     A9 AA                       lda     #$AA
$00F4D8     51 14                       eor     (TmpZP0+4),Y
$00F4DA                 M261
$00F4DA     F0 FE                       beq     M261            ; error, ->
$00F4DC                 M262
$00F4DC     10 FE                       bpl     M262            ; error, ->
$00F4DE     C9 FF                       cmp     #$FF
$00F4E0                 M263
$00F4E0     D0 FE                       bne     M263
$00F4E2                 ;* A = $CC, memory = $CC
$00F4E2     A9 F0                       lda     #$F0
$00F4E4     85 03                       sta     Test
$00F4E6     A9 CC                       lda     #$CC
$00F4E8     85 10                       sta     TmpZP0
$00F4EA     8D 00 10                    sta     TmpAB0
$00F4ED     95 10                       sta     TmpZP0,X
$00F4EF     9D 00 10                    sta     TmpAB0,X
$00F4F2     99 00 10                    sta     TmpAB0,Y
$00F4F5     81 10                       sta     (TmpZP0,X)
$00F4F7     91 14                       sta     (TmpZP0+4),Y
$00F4F9     A9 CC                       lda     #$CC
$00F4FB     49 CC                       eor     #$CC
$00F4FD                 M291
$00F4FD     D0 FE                       bne     M291            ; error, ->
$00F4FF                 M292
$00F4FF     30 FE                       bmi     M292            ; error, ->
$00F501     A9 F1                       lda     #$F1
$00F503     85 03                       sta     Test
$00F505     A9 CC                       lda     #$CC
$00F507     45 10                       eor     TmpZP0
$00F509                 M301
$00F509     D0 FE                       bne     M301            ; error, ->
$00F50B                 M302
$00F50B     30 FE                       bmi     M302            ; error, ->
$00F50D     A9 F2                       lda     #$F2
$00F50F     85 03                       sta     Test
$00F511     A9 CC                       lda     #$CC
$00F513     4D 00 10                    eor     TmpAB0
$00F516                 M311
$00F516     D0 FE                       bne     M311            ; error, ->
$00F518                 M312
$00F518     30 FE                       bmi     M312            ; error, ->
$00F51A     A9 F3                       lda     #$F3
$00F51C     85 03                       sta     Test
$00F51E     A9 CC                       lda     #$CC
$00F520     55 10                       eor     TmpZP0,X
$00F522                 M321
$00F522     D0 FE                       bne     M321            ; error, ->
$00F524                 M322
$00F524     30 FE                       bmi     M322            ; error, ->
$00F526     A9 F4                       lda     #$F4
$00F528     85 03                       sta     Test
$00F52A     A9 CC                       lda     #$CC
$00F52C     5D 00 10                    eor     TmpAB0,X
$00F52F                 M331
$00F52F     D0 FE                       bne     M331            ; error, ->
$00F531                 M332
$00F531     30 FE                       bmi     M332            ; error, ->
$00F533     A9 F5                       lda     #$F5
$00F535     85 03                       sta     Test
$00F537     A9 CC                       lda     #$CC
$00F539     59 00 10                    eor     TmpAB0,Y
$00F53C                 M341
$00F53C     D0 FE                       bne     M341            ; error, ->
$00F53E                 M342
$00F53E     30 FE                       bmi     M342            ; error, ->
$00F540     A9 F6                       lda     #$F6
$00F542     85 03                       sta     Test
$00F544     A9 CC                       lda     #$CC
$00F546     41 10                       eor     (TmpZP0,X)
$00F548                 M351
$00F548     D0 FE                       bne     M351            ; error, ->
$00F54A                 M352
$00F54A     30 FE                       bmi     M352            ; error, ->
$00F54C     A9 F7                       lda     #$F7
$00F54E     85 03                       sta     Test
$00F550     A9 CC                       lda     #$CC
$00F552     51 14                       eor     (TmpZP0+4),Y
$00F554                 M361
$00F554     D0 FE                       bne     M361            ; error, ->
$00F556                 M362
$00F556     30 FE                       bmi     M362            ; error, ->
$00F558                 ;**  JMP ($xxxx)
$00F558     A9 F8                       lda     #$F8
$00F55A     85 03                       sta     Test
$00F55C     A9 09                       lda     #<(L000)
$00F55E     8D 00 10                    sta     TmpAB0
$00F561     A9 E0                       lda     #>(L000)
$00F563     8D 01 10                    sta     TmpAB0+1
$00F566     6C 00 10                    jmp     (TmpAB0)
$00F569                 ;* Should not be executed at all
$00F569     EA                          nop
$00F56A     38                          sec
$00F56B                 M371
$00F56B     B0 FE                       bcs     M371
$00F56D     EA                          nop
$00F56E                 M372
$00F56E     EA                          nop
$00F56F                 ;**  JSR
$00F56F     A9 F9                       lda     #$F9
$00F571     85 03                       sta     Test
$00F573     A2 F8                       ldx     #$F8
$00F575     9A                          txs
$00F576     38                          sec
$00F577     A9 FF                       lda     #$FF
$00F579     20 0D E0                    jsr     L000a
$00F57C                 M373
$00F57C     B0 FE                       bcs     M373
$00F57E                 M374
$00F57E     D0 FE                       bne     M374
$00F580     EA                          nop
$00F581                 ;**  PHP, PLP
$00F581     A9 FA                       lda     #$FA
$00F583     85 03                       sta     Test
$00F585     A9 FF                       lda     #$FF
$00F587     48                          pha
$00F588     68                          pla
$00F589     85 06                       sta     $06
$00F58B     C9 FF                       cmp     #$FF
$00F58D                 XX01
$00F58D     D0 FE                       bne     XX01                
$00F58F     A2 00                       ldx     #0
$00F591     A9 FF                       lda     #$FF
$00F593     48                          pha             
$00F594     28                          plp
$00F595     8E F8 01                    stx     $01F8
$00F598     08                          php
$00F599     68                          pla
$00F59A     85 08                       sta     $08
$00F59C     C9 FF                       cmp     #$FF
$00F59E                 M381
$00F59E     D0 FE                       bne     M381
$00F5A0     AA                          tax
$00F5A1     A9 00                       lda     #0
$00F5A3     48                          pha             
$00F5A4     28                          plp
$00F5A5     8E F8 01                    stx     $01F8           ; erase original value on purpose
$00F5A8     08                          php
$00F5A9     68                          pla
$00F5AA     29 20        and #$20                       ; avoid T65 bug
$00F5AC     C9 20                       cmp     #$20
$00F5AE                 M382
$00F5AE     D0 FE                       bne     M382
$00F5B0                 ;**  BRK, RTI
$00F5B0     A9 FB                       lda     #$FB
$00F5B2     85 03                       sta     Test
$00F5B4     00                          brk
$00F5B5     EA                          nop
$00F5B6                 ;**  ADC  (3)                   Test ADC in decimal mode
$00F5B6     A9 FC                       lda     #$FC
$00F5B8     85 03                       sta     Test
$00F5BA     F8                          sed
$00F5BB     18                          clc
$00F5BC     A9 12                       lda     #$12
$00F5BE     69 34                       adc     #$34
$00F5C0                 M390
$00F5C0     B0 FE                       bcs     M390
$00F5C2     C9 46                       cmp     #$46
$00F5C4                 M391
$00F5C4     D0 FE                       bne     M391
$00F5C6                 M392
$00F5C6     90 FE                       bcc     M392
$00F5C8                 M393
$00F5C8     30 FE                       bmi     M393
$00F5CA     38                          sec
$00F5CB     69 34                       adc     #$34
$00F5CD                 M395
$00F5CD     B0 FE                       bcs     M395
$00F5CF                 M396
$00F5CF     10 FE                       bpl     M396
$00F5D1     85 04                       sta     $04             ; to check possible bug in T65  
$00F5D3     C9 81                       cmp     #$81
$00F5D5                 M394
$00F5D5     D0 FE                       bne     M394
$00F5D7     18                          clc
$00F5D8     69 19                       adc     #$19
$00F5DA     85 04                       sta     $04             ; to check possible bug in T65  
$00F5DC                 M397
$00F5DC     D0 FE                       bne     M397
$00F5DE                 M398
$00F5DE     90 FE                       bcc     M398
$00F5E0                 M399
$00F5E0     30 FE                       bmi     M399
$00F5E2                 ;**  SBC  (3)                   Test SBC in decimal mode
$00F5E2     A9 FD                       lda     #$FD
$00F5E4     85 03                       sta     Test
$00F5E6     A9 FE                       lda     #$FE
$00F5E8     85 03                       sta     Test
$00F5EA                 L997
$00F5EA     4C EA F5                    jmp     L997
$00FFEC                 .ba $FFEC
$00FFEC                 ;**  Part of testing JMP
$00FFEC                 L999
$00FFEC     4C 12 E0                    jmp     L005
$00FFEF                 ;* Should not be executed at all
$00FFEF     EA                          nop
$00FFF0     38                          sec
$00FFF1                 L999c
$00FFF1     B0 FE                       bcs     L999c
$00FFF3     EA                          nop
$00FFF4                 .ba $FFF4
$00FFF4                 IRQ
$00FFF4                 NMI
$00FFF4     EA                          nop
$00FFF5     A9 FF                       lda     #$FF
$00FFF7     48                          pha
$00FFF8     28                          plp                     ; change flag register on purpose
$00FFF9     40                          rti
$00FFFA     F4 FF       .wo NMI
$00FFFC     00 E0       .wo Reset
$00FFFE     F4 FF       .wo IRQ
